_ZN3art11ClassLinker29GetHoldingClassOfCopiedMethodEPNS_9ArtMethodE
_ZN3art11ElfFileImplINS_10ElfTypes64EE17FindSymbolAddressEjRKNSt3__112basic_stringIcNS3_11char_traitsIcEENS3_9allocatorIcEEEEb
_ZN3art2gc5space10ImageSpace28VerifyBootClassPathChecksumsENSt3__117basic_string_viewIcNS3_11char_traitsIcEEEES7_NS_8ArrayRefIKNS3_10unique_ptrIS2_NS3_14default_deleteIS2_EEEEEENS8_IKNS3_12basic_stringIcS6_NS3_9allocatorIcEEEEEESK_PSI_
_ZN3art3jit12JitCodeCache13DataCacheSizeEv
_ZNK3art12StackVisitor24GetVRegFromOptimizedCodeENS_19DexRegisterLocationEPj
_ZN3art2gc9collector9SemiSpace12ReclaimPhaseEv
_ZN3art2gc5space13RosAllocSpace12GetFootprintEv
NterpGetInstanceFieldOffset
_ZN3art16OatFileAssistant24IsPrimaryBootImageUsableEv
_ZN3art7Runtime22NotifyStartupCompletedEv
_ZN3art33ScopedObjectAccessAlreadyRunnable34DCheckObjIsNotClearedJniWeakGlobalENS_6ObjPtrINS_6mirror6ObjectEEE
_ZN3art6mirror5Class18GetDirectInterfaceEj
_ZN3art11interpreter16UnstartedRuntime22UnstartedMemoryPeekIntEPNS_6ThreadEPNS_11ShadowFrameEPNS_6JValueEm
_ZNSt3__115basic_stringbufIcNS_11char_traitsIcEENS_9allocatorIcEEE9underflowEv
_ZN3art2gc9collector17ConcurrentCopying12ReclaimPhaseEv
_ZN3art3jit15JitMemoryRegion12AllocateDataEm
_ZTVN3art18MonitorExitVisitorE
_ZNK3com7android3art21SystemServerComponent16getIsInClasspathEv
_ZN3art2gc9allocator8RosAlloc29RevokeThreadUnsafeCurrentRunsEv
_ZN3art36SetQuickAllocEntryPointsInstrumentedEb
__dex_debug_descriptor
_ZN3art9JavaVMExt11ShouldTraceEPNS_9ArtMethodE
_ZN3art8verifier12RegisterLine13CheckBinaryOpEPNS0_14MethodVerifierEPKNS_11InstructionERKNS0_7RegTypeES9_S9_b
_ZN3art8verifier12RegTypeCache4DumpERNSt3__113basic_ostreamIcNS2_11char_traitsIcEEEE
_ZN3art11ClassLinker11LinkMethodsEPNS_6ThreadENS_6HandleINS_6mirror5ClassEEENS3_INS4_11ObjectArrayIS5_EEEEPbPPNS_9ArtMethodE
_ZN3art2gc5space11RegionSpace27ZeroLiveBytesForLargeObjectEPNS_6mirror6ObjectE
_ZN3art2gc5space16BumpPointerSpace10AllocBlockEm
_ZN3art6HandleINS_6mirror11ObjectArrayINS1_6ObjectEEEE10GetFromGdbEv
_ZN3art11ImageHeaderC2EjjjjPNS_12ImageSectionEjjjjjjjjjjj
_ZN3art22IndirectReferenceTableC1ENS_15IndirectRefKindE
_ZNK3art6mirror14PrimitiveArrayIaE7GetDataEv
_ZGVZN3art11CmdlineTypeINS_6MemoryILm1024EEEE12DescribeTypeEvE3str
_ZN3art6Thread18InitTlsEntryPointsEv
_ZN3art2gc20AllocRecordObjectMap28DisallowNewAllocationRecordsEv
_ZN3art2gc9allocator8RosAlloc24ObjectsAllocatedCallbackEPvS3_mS3_
_ZN3art15instrumentation15Instrumentation18DeoptimizeIfNeededEPNS_6ThreadEPPNS_9ArtMethodENS_24DeoptimizationMethodTypeENS_6JValueEb
_ZN3art11interpreter26DoVarHandleGetAndBitwiseOrEPNS_6ThreadERNS_11ShadowFrameEPKNS_11InstructionEtPNS_6JValueE
_ZN3art21QuickExceptionHandler38SetCatchEnvironmentForOptimizedHandlerEPNS_12StackVisitorE
_ZNK3art8verifier12VerifierDeps19VerifyAssignabilityENS_6HandleINS_6mirror11ClassLoaderEEERKNS_7DexFileERKNSt3__16vectorINS9_3setINS1_17TypeAssignabilityENS9_4lessISC_EENS9_9allocatorISC_EEEENSF_ISH_EEEEPNS_6ThreadEPNS9_12basic_stringIcNS9_11char_traitsIcEENSF_IcEEEE
mspace_bulk_free
_ZN3art3jit3Jit13jit_compiler_E
_ZN3art11interpreter16UnstartedRuntime21UnstartedMethodInvokeEPNS_6ThreadEPNS_11ShadowFrameEPNS_6JValueEm
_ZN3art7Runtime19DumpDeoptimizationsERNSt3__113basic_ostreamIcNS1_11char_traitsIcEEEE
artAllocStringFromStringFromCodeRosAllocInstrumented
_ZN3art2gc5space10ImageSpace20ValidateApexVersionsERKNS_9OatHeaderERKNSt3__112basic_stringIcNS6_11char_traitsIcEENS6_9allocatorIcEEEESE_PSC_
_ZN3art3Dbg12DdmBroadcastEb
_ZN3art5Trace16EncodeEventEntryEPhPNS_6ThreadEjNS_11TraceActionEjj
_ZN3art11ClassLinker24ThrowEarlierClassFailureENS_6ObjPtrINS_6mirror5ClassEEEbb
_ZNK3art11ElfFileImplINS_10ElfTypes64EE3EndEv
_ZN3art9hiddenapi6detail28ShouldDenyAccessToMemberImplINS_9ArtMethodEEEbPT_NS0_7ApiListENS0_12AccessMethodE
_ZNK3art11InternTable4SizeEv
_ZN3art6Thread31FindOrCreateDebuggerShadowFrameEmjPNS_9ArtMethodEj
_ZN3art2gc9collector17ConcurrentCopying17DumpHeapReferenceEPNS_6mirror6ObjectENS_12MemberOffsetES5_
_ZN3art6mirror5Class15IsInSamePackageENSt3__117basic_string_viewIcNS2_11char_traitsIcEEEES6_
artGet64StaticFromCode
_ZN3art20OatQuickMethodHeader17NterpMethodHeaderE
_ZNK3art2gc4Heap17GetPreOomeGcCountEv
CpuFeatures_IsHwCapsSet
_ZN3art11ClassLinker20CreatePrimitiveClassEPNS_6ThreadENS_9Primitive4TypeENS_9ClassRootE
_ZN3art10ClassTableC1Ev
_ZN3art16WellKnownClasses61jdk_internal_math_FloatingDecimal_getBinaryToASCIIConverter_FE
_ZNK3com7android4apex12ApexInfoList16getFirstApexInfoEv
_ZN3art22ClassHierarchyAnalysis32RemoveDependenciesForLinearAllocEPNS_6ThreadEPKNS_11LinearAllocE
_ZNK3art2gc10accounting11SpaceBitmapILm8EE7IsValidEv
_ZN3art11InternTable5Table6RemoveENS_6ObjPtrINS_6mirror6StringEEEj
_ZNK3art3jit3Jit20CanAssumeInitializedENS_6ObjPtrINS_6mirror5ClassEEEb
_ZN3art6mirror9VarHandle28GetNumberOfVarTypeParametersENS1_18AccessModeTemplateE
_ZN3art18RuntimeArgumentMap12JdwpProviderE
_ZNK3art11Transaction9ObjectLog14UndoFieldWriteEPNS_6mirror6ObjectENS_12MemberOffsetERKNS1_10FieldValueE
_ZNK3art7ElfFile5BeginEv
_ZN3art15instrumentation27InstrumentationInstallStackEPNS_6ThreadEb
_ZN3art11interpreter16UnstartedRuntime10InitializeEv
_ZN3art6Thread42InternalStackTraceToStackTraceElementArrayERKNS_33ScopedObjectAccessAlreadyRunnableEP8_jobjectP13_jobjectArrayPi
_ZNK3art27Arm64InstructionSetFeatures26AddRuntimeDetectedFeaturesEPKNS_22InstructionSetFeaturesE
_ZN3art5Locks14profiler_lock_E
_ZN3art11interpreter27DoVarHandleGetAndAddReleaseEPNS_6ThreadERNS_11ShadowFrameEPKNS_11InstructionEtPNS_6JValueE
_ZN3art11ClassLinker20VisitClassesInternalEPNS_12ClassVisitorE
_ZN3art6mirror5Class15FindClassMethodENS_6ObjPtrINS0_8DexCacheEEEjNS_11PointerSizeE
_ZN3art6Thread21InitStringEntryPointsEv
_ZTVN3art12FaultHandlerE
_ZN3art15instrumentation15Instrumentation23RemoveDeoptimizedMethodEPNS_9ArtMethodE
_ZN3art3jit12JitCodeCache21SetGarbageCollectCodeEb
_ZNK3art8verifier34UnresolvedUninitializedThisRefType4DumpEv
_ZN3art36ThrowStringIndexOutOfBoundsExceptionEii
_ZN3art2gc9collector11MarkCompact8IsMarkedEPNS_6mirror6ObjectE
_ZN3art2gc9collector9SemiSpace27IsNullOrMarkedHeapReferenceEPNS_6mirror13HeapReferenceINS3_6ObjectEEEb
_ZN3art8verifier11IntegerType9instance_E
_ZN3art33SetQuickAllocEntryPoints_dlmallocEPNS_16QuickEntryPointsEb
_ZNK3art11ElfFileImplINS_10ElfTypes32EE22GetSectionHeadersStartEv
_ZN3art2gc4Heap36CalculatePreGcWeightedAllocatedBytesEv
_ZN3art11interpreter34ArtInterpreterToCompiledCodeBridgeEPNS_6ThreadEPNS_9ArtMethodEPNS_11ShadowFrameEtPNS_6JValueE
_ZNK3art11Transaction14ReadConstraintENS_6ObjPtrINS_6mirror6ObjectEEE
_ZN3art6mirror6Object5CloneENS_6HandleIS1_EEPNS_6ThreadE
_ZN3art10ObjectLockINS_6mirror8ClassExtEEC2EPNS_6ThreadENS_6HandleIS2_EE
_ZN3art18RuntimeArgumentMap17ParallelGCThreadsE
_ZNK3art8verifier9FloatType4DumpEv
_ZN3art11ClassLinker13LookupClassesEPKcRNSt3__16vectorINS_6ObjPtrINS_6mirror5ClassEEENS3_9allocatorIS8_EEEE
_ZN3art6mirror21ArrayElementVarHandle6AccessENS0_9VarHandle10AccessModeEPNS_11ShadowFrameEPKNS_19InstructionOperandsEPNS_6JValueE
_ZN3art2gc10accounting17MemoryRangeBitmapILm16EE5ClearEm
_ZN3art2gc10accounting9CardTableD1Ev
_ZN3art11interpreter16UnstartedRuntime37UnstartedVmClassLoaderFindLoadedClassEPNS_6ThreadEPNS_11ShadowFrameEPNS_6JValueEm
_ZN3art6mirror14PrimitiveArrayIsE5AllocEPNS_6ThreadEm
_ZNK3com7android4apex12ApexInfoList11getApexInfoEv
_ZN3art16RuntimeCallbacks12ClassPrepareENS_6HandleINS_6mirror5ClassEEES4_
_ZNK3art2gc10accounting17MemoryRangeBitmapILm8EE16AddrFromBitIndexEm
_ZNK3art23OatFileAssistantContext17GetRuntimeOptionsEv
_ZN3art7Runtime21ScopedThreadPoolUsageD2Ev
_ZN3art12StackVisitor11SetReturnPcEm
_ZN3art5TraceC2EPN9unix_file6FdFileEmiNS0_15TraceOutputModeENS0_9TraceModeE
_ZN3art11interpreter16DoFilledNewArrayILb1ELb1EEEbPKNS_11InstructionERKNS_11ShadowFrameEPNS_6ThreadEPNS_6JValueE
_ZN3art8VdexFile14VdexFileHeader10kVdexMagicE
_ZN3art7AppInfoC1Ev
_ZN3art2gc5space13RosAllocSpace37AssertAllThreadLocalBuffersAreRevokedEv
_ZN3art18RuntimeArgumentMap27DumpGCPerformanceOnShutdownE
_ZN3art22ClassHierarchyAnalysis44CheckInterfaceMethodSingleImplementationInfoENS_6HandleINS_6mirror5ClassEEEPNS_9ArtMethodES6_RNSt3__113unordered_setIS6_NS7_4hashIS6_EENS7_8equal_toIS6_EENS7_9allocatorIS6_EEEENS_11PointerSizeE
_ZN3art2gc9collector17ConcurrentCopyingD1Ev
_ZN3art2gc9collector11MarkCompact20UpdateNonMovingSpaceEv
_ZNK3art8verifier7RegType12IsArrayTypesEv
CpuFeatures_StringView_Back
_ZN3art11interpreter16UnstartedRuntime38UnstartedJNIJdkUnsafeCompareAndSwapIntEPNS_6ThreadEPNS_9ArtMethodEPNS_6mirror6ObjectEPjPNS_6JValueE
_ZN3art12ProfileSaver26GetClassesAndMethodsHelper14CollectClassesEPNS_6ThreadE
_ZN3art7Monitor18MaybeEnableTimeoutEv
_ZTVN3art13VariantMapKeyINS_15ParseStringListILc58EEEEE
_ZN3art5Trace15WatchedFramePopEPNS_6ThreadERKNS_11ShadowFrameE
_ZNK3art7Runtime17UseJitCompilationEv
_ZN3art15CompatFrameworkD2Ev
_ZN3art2gc4Heap26RequestCollectorTransitionENS0_13CollectorTypeEm
_ZN3art8verifier12VerifierDeps19RecordClassVerifiedERKNS_7DexFileERKNS_3dex8ClassDefE
_ZNSt3__113__tree_removeIPNS_16__tree_node_baseIPvEEEEvT_S5_
_ZN3art11QuasiAtomic12GetSwapMutexEPVKl
_ZN3art2gc9collector17ConcurrentCopying16SweepSystemWeaksEPNS_6ThreadE
_ZN3art7Runtime19NotifyDexFileLoadedEv
_ZN3art22ThrowSecurityExceptionEPKcz
_ZN3art16RuntimeCallbacks15DdmPublishChunkEjRKNS_8ArrayRefIKhEE
_ZN3art11interpreter16DoFilledNewArrayILb1ELb0EEEbPKNS_11InstructionERKNS_11ShadowFrameEPNS_6ThreadEPNS_6JValueE
_ZNK3art29Riscv64InstructionSetFeatures26AddFeaturesFromSplitStringERKNSt3__16vectorINS1_12basic_stringIcNS1_11char_traitsIcEENS1_9allocatorIcEEEENS6_IS8_EEEEPS8_
_ZN3art11ClassLinker14FindClassTableEPNS_6ThreadENS_6ObjPtrINS_6mirror8DexCacheEEE
_ZN3art18RuntimeArgumentMap16TargetSdkVersionE
_ZTVN3art29JniTransitionReferenceVisitorILb1EEE
_ZN3art8verifierlsERNSt3__113basic_ostreamIcNS1_11char_traitsIcEEEERKNS0_7RegTypeE
_ZN3art11ClassLinkerD1Ev
_ZNK3art11ElfFileImplINS_10ElfTypes32EE9GetSymbolEjj
_ZN3art2gc9collector17ConcurrentCopying32SwitchToGcExclusiveMarkStackModeEv
_ZN3art12ProfileSaver16DumpInstanceInfoERNSt3__113basic_ostreamIcNS1_11char_traitsIcEEEE
_ZN3art6mirror5Class26SetObjectSizeAllocFastPathEj
_ZN3art6mirror6String22PrettyStringDescriptorEv
_ZN3art13ParsedOptionsC1Ev
_ZN3art21JavaStackTraceHandler6ActionEiP7siginfoPv
_ZN3art7Runtime20AddExtraBootDexFilesERKNSt3__112basic_stringIcNS1_11char_traitsIcEENS1_9allocatorIcEEEES9_ONS1_6vectorINS1_10unique_ptrIKNS_7DexFileENS1_14default_deleteISD_EEEENS5_ISG_EEEE
_ZN3art6mirror6String6EqualsEPS1_
_ZNK3art2gc14ReferenceQueue9GetLengthEv
_ZN3art11interpreter16UnstartedRuntime21InitializeJNIHandlersEPNS_6ThreadE
_ZN3art16RuntimeCallbacks17HaveLocalsChangedEv
_ZN3art7Runtime17SetInstructionSetENS_14InstructionSetE
_ZN3art2tilsERNSt3__113basic_ostreamIcNS1_11char_traitsIcEEEEPKNS0_5AgentE
_ZNK3art8verifier7RegType13GetSuperClassEPNS0_12RegTypeCacheE
_ZNK3art9OatHeader28GetQuickResolutionTrampolineEv
_ZNK3com7android3art22SystemServerComponents17getFirstComponentEv
DlmallocObjectsAllocatedCallback
_ZN3art2gc9allocator8RosAllocD2Ev
_ZN3art2gc9collector17ConcurrentCopying22AssertToSpaceInvariantEPNS_6mirror6ObjectENS_12MemberOffsetES5_
_ZNK3art12StackVisitor16DescribeLocationEv
_ZTVN3art13VariantMapKeyINS_12LogVerbosityEEE
_ZN3art11Transaction15InternStringLogC1ENS_6ObjPtrINS_6mirror6StringEEENS1_10StringKindENS1_8StringOpE
_ZN3art2gc5space16LargeObjectSpace16CopyLiveToMarkedEv
artAllocStringFromCharsFromCodeTLABInstrumented
_ZN3art14AotClassLinkerD2Ev
_ZN3art2gc5space13RosAllocSpaceD2Ev
_ZN3art8verifier12DoubleHiType9instance_E
_ZN3art2gc9collector17ConcurrentCopying4CopyEPNS_6ThreadEPNS_6mirror6ObjectES7_NS_12MemberOffsetE
_ZN3art28ThrowReadOnlyBufferExceptionEv
_ZN3art12FaultManager8ShutdownEv
_ZN3art2gc4Heap20RosAllocVerificationEPNS_12TimingLoggerEPKc
_ZN3art6mirror14FieldVarHandle6AccessENS0_9VarHandle10AccessModeEPNS_11ShadowFrameEPKNS_19InstructionOperandsEPNS_6JValueE
_ZN11unwindstack20AndroidLocalUnwinder15kUnwindstackLibE
_ZN3art11ClassLinker14RunRootClinitsEPNS_6ThreadE
_ZN3art9hiddenapi23InitializeDexFileDomainERKNS_7DexFileENS_6ObjPtrINS_6mirror11ClassLoaderEEE
_ZN3art2gc20AllocRecordObjectMapC1Ev
_ZN3art2gc9collector9MarkSweep12MarkingPhaseEv
_ZNK3art11ElfFileImplINS_10ElfTypes32EE19GetHashSectionStartEv
_ZN3art2gc10accounting6BitmapC1EONS_6MemMapEm
_ZN3art2gc5space16BumpPointerSpace5ClearEv
_ZN3art2gc5space13DlMallocSpace17SetFootprintLimitEm
_ZN3art11InternTable5Table10SweepWeaksEPNS_7HashSetINS_6GcRootINS_6mirror6StringEEENS0_13GcRootEmptyFnENS0_10StringHashENS0_12StringEqualsENS_20GcRootArenaAllocatorIS6_LNS_12AllocatorTagE3EEEEEPNS_15IsMarkedVisitorE
_ZN3art6mirror5Class30GetDeclaredConstructorInternalILNS_11PointerSizeE8EEENS_6ObjPtrINS0_11ConstructorEEEPNS_6ThreadENS4_IS1_EENS4_INS0_11ObjectArrayIS1_EEEE
_ZN3art20StartupCompletedTask3RunEPNS_6ThreadE
_ZN3art2gc5space13RosAllocSpace17GetBytesAllocatedEv
_ZThn136_N3art2gc5space11ZygoteSpace8FreeListEPNS_6ThreadEmPPNS_6mirror6ObjectE
_ZN3art14ReferenceTable4DumpERNSt3__113basic_ostreamIcNS1_11char_traitsIcEEEE
_ZN3art9BaseMutex17ContentionLogData13AddToWaitTimeEm
_ZN3art16CumulativeLogger5ResetEv
_ZN3art6Thread7DestroyEb
_ZN3art8verifier12RegisterLine12CheckUnaryOpEPNS0_14MethodVerifierEPKNS_11InstructionERKNS0_7RegTypeES9_
_ZN3art11ClassLinker18FillIMTFromIfTableENS_6ObjPtrINS_6mirror7IfTableEEEPNS_9ArtMethodES6_NS1_INS2_5ClassEEEbbPbPS6_
_ZNK3art11ElfFileImplINS_10ElfTypes64EE19CheckSectionsLinkedEPKhS4_
_ZN3art11MemMapArenaD0Ev
_ZN3art2gc9collector17ConcurrentCopying5SweepEb
_ZNK3com7android4apex8ApexInfo13getModuleNameEv
artAllocStringFromStringFromCodeBumpPointer
_ZTVN3art20LookupClassesVisitorE
_ZN3art2gc10accounting6BitmapD2Ev
_ZNK3com7android3art9CacheInfo24getFirstSystemPropertiesEv
_ZNK3com7android3art9CacheInfo17hasModuleInfoListEv
_ZN3art2gc9collector11MarkCompact22MarkZygoteLargeObjectsEv
_ZN3art23ScopedThreadStateChange33ScopedThreadChangeDestructorCheckEv
_ZN3art11ClassLinker18FindPrimitiveClassEc
_ZN3art6mirror5Class11GetClassDefEv
_ZNK3art2gc5space13FreeListSpace27GetAllocationInfoForAddressEm
_ZN3art6mirror5Class20EnsureExtDataPresentENS_6HandleIS1_EEPNS_6ThreadE
_ZN3art19ConvertJValueCommonENS_6HandleINS_6mirror10MethodTypeEEES3_NS_6ObjPtrINS1_5ClassEEES6_PNS_6JValueE
_ZTVN3art6detail20CmdlineParseArgumentINS_9XGcOptionEEE
_ZN3art8verifier12RegTypeCache11InsertClassERKNSt3__117basic_string_viewIcNS2_11char_traitsIcEEEENS_6ObjPtrINS_6mirror5ClassEEEb
_ZN3art12NterpGetVRegEPPNS_9ArtMethodEt
_ZN3art8verifier12VerifierDepsC1ERKNSt3__16vectorIPKNS_7DexFileENS2_9allocatorIS6_EEEEb
_ZN3art9ArtMethod14FindCatchBlockENS_6HandleINS_6mirror5ClassEEEjPb
_ZN3art2gc5space11RegionSpace6Region15MarkAsAllocatedEPS2_j
_ZN3art2gc5space5Space13AsRegionSpaceEv
_ZN3art7BarrierD1Ev
_ZN3art11interpreter20ExecuteSwitchImplCppILb0EEEvPNS0_17SwitchImplContextE
_ZN3art6Thread24HandleUncaughtExceptionsEv
_ZN3art5Locks27allocated_monitor_ids_lock_E
_ZTVN3art3jit22ZygoteVerificationTaskE
_ZN3art3Dbg18DdmHandleHpifChunkENS0_8HpifWhenE
_ZN3art6Thread23FindDebuggerShadowFrameEm
_ZTVN3art21JavaStackTraceHandlerE
_ZN3art6Thread10AdjustTlabEm
_ZN3art6HandleINS_6mirror10MethodTypeEE10GetFromGdbEv
_ZN3art3jit12JitCodeCache15RemoveMethodsInEPNS_6ThreadERKNS_11LinearAllocE
_ZN3art12FaultManager17IsInGeneratedCodeEP7siginfoPv
_ZN3art2gc10accounting9CardTable14ClearCardTableEv
_ZN3art2gc10accounting13RememberedSet10ClearCardsEv
_ZN3art2gc10accounting11SpaceBitmapILm8EE17ComputeBitmapSizeEm
_ZN3art3jit12JitCodeCache17NotifyCompilerUseEPNS_9ArtMethodEPNS_6ThreadE
_ZN3art11Transaction27RecordStrongStringInsertionENS_6ObjPtrINS_6mirror6StringEEE
_ZNSt3__113basic_filebufIcNS_11char_traitsIcEEE4syncEv
_ZNSt3__16__treeINS_12__value_typeINS_12basic_stringIcNS_11char_traitsIcEENS_9allocatorIcEEEES7_EENS_19__map_value_compareIS7_S8_NS_4lessIS7_EELb1EEENS5_IS8_EEE12__find_equalIS7_EERPNS_16__tree_node_baseIPvEERPNS_15__tree_end_nodeISJ_EERKT_
_ZN3art2gc9collector16GarbageCollector25ResetCumulativeStatisticsEv
_ZN3art11interpreter14DoInvokeCustomEPNS_6ThreadERNS_11ShadowFrameEjPKNS_19InstructionOperandsEPNS_6JValueE
_ZN3art11interpreter16UnstartedRuntime23UnstartedObjectHashCodeEPNS_6ThreadEPNS_11ShadowFrameEPNS_6JValueEm
_ZN3art6mirror14PrimitiveArrayIdE7MemmoveEiNS_6ObjPtrIS2_EEii
_ZNK3art9OatHeader34GetQuickGenericJniTrampolineOffsetEv
artAllocStringFromBytesFromCodeTLAB
JNI_GetDefaultJavaVMInitArgs
_ZN3artlsERNSt3__113basic_ostreamIcNS0_11char_traitsIcEEEERKNS_18DeoptimizationKindE
_ZTVN3art14DumpCheckpointE
_ZNSt3__16vectorINS_10unique_ptrIKN3art7DexFileENS_14default_deleteIS4_EEEENS_9allocatorIS7_EEE21__push_back_slow_pathIS7_EEvOT_
_ZNK3art6Thread14IsJWeakClearedEP8_jobject
_ZN3art15CompatFramework19ChangeStateToStringENS0_11ChangeStateE
_ZN3art6mirror5Class31FindDeclaredVirtualMethodByNameENSt3__117basic_string_viewIcNS2_11char_traitsIcEEEENS_11PointerSizeE
_ZN3art2gc4Heap19RemoveRememberedSetEPNS0_5space5SpaceE
_ZN3art10ThreadPool16TryGetTaskLockedEv
artLmod
_ZN3com7android3art9ComponentC2ENSt3__112basic_stringIcNS3_11char_traitsIcEENS3_9allocatorIcEEEEmS9_
_ZN3art15instrumentation15Instrumentation29NeedsSlowInterpreterForMethodEPNS_6ThreadEPNS_9ArtMethodE
_ZN3art11interpreter16UnstartedRuntime25UnstartedClassNewInstanceEPNS_6ThreadEPNS_11ShadowFrameEPNS_6JValueEm
_ZN3art3jit12JitCodeCache22AllowInlineCacheAccessEv
_ZN3art3jni34ScopedEnableSuspendAllJniIdQueriesD1Ev
_ZN3art9OatHeader7FlattenEPKNS_7SafeMapINSt3__112basic_stringIcNS2_11char_traitsIcEENS2_9allocatorIcEEEES8_NS2_4lessIS8_EENS6_INS2_4pairIKS8_S8_EEEEEE
_ZN3art7Runtime20SetImtConflictMethodEPNS_9ArtMethodE
_ZNK3art11ElfFileImplINS_10ElfTypes32EE9GetHeaderEv
_ZN3art6mirror14PrimitiveArrayIhE7GetDataEv
_ZN3art11MonitorList19DisallowNewMonitorsEv
_ZN3art11MonitorList23BroadcastForNewMonitorsEv
artAllocObjectFromCodeWithChecksBumpPointer
_ZNK3art11ElfFileImplINS_10ElfTypes64EE6GetRelER10elf64_shdrj
_ZN3art2gc10accounting17MemoryRangeBitmapILm1024EE16AtomicTestAndSetEm
_ZN3art18RuntimeArgumentMap12HookVfprintfE
_ZN3art5Trace5StartEONSt3__110unique_ptrIN9unix_file6FdFileENS1_14default_deleteIS4_EEEEmiNS0_15TraceOutputModeENS0_9TraceModeEi
_ZN3art11interpreter35DoVarHandleWeakCompareAndSetReleaseEPNS_6ThreadERNS_11ShadowFrameEPKNS_11InstructionEtPNS_6JValueE
_ZN3art11interpreter16UnstartedRuntime24UnstartedStringDoReplaceEPNS_6ThreadEPNS_11ShadowFrameEPNS_6JValueEm
_ZN3art16OatFileAssistant24AnonymousDexVdexLocationERKNSt3__16vectorIPKNS_7DexFile6HeaderENS1_9allocatorIS6_EEEENS_14InstructionSetEPNS1_12basic_stringIcNS1_11char_traitsIcEENS7_IcEEEESI_
artSetBooleanInstanceFromCode
_ZN3art7metrics6statsd11stats_writeEibbb
_ZN3artlsERNSt3__113basic_ostreamIcNS0_11char_traitsIcEEEENS_19DexRegisterLocation4KindE
_ZN3art11ClassLinker15GetDexLockOwnerEv
_ZN3art12ProfileSaver22NotifyStartupCompletedEv
_ZN3art9JavaVMExtD1Ev
_ZN3art3jni19LocalReferenceTable6RemoveENS0_15LRTSegmentStateEPv
_ZN3art6mirror5Class19GetCommonSuperClassENS_6HandleIS1_EE
_ZNK3art8verifier20ImpreciseConstLoType4DumpEv
artGetBooleanInstanceFromCode
_ZN3art11ClassLinker40MakeInitializedClassesVisiblyInitializedEPNS_6ThreadEb
_ZN3art11ClassLinker24RegisterExistingDexCacheENS_6ObjPtrINS_6mirror8DexCacheEEENS1_INS2_11ClassLoaderEEE
_ZN3art11interpreter16UnstartedRuntime19UnstartedJNIMathLogEPNS_6ThreadEPNS_9ArtMethodEPNS_6mirror6ObjectEPjPNS_6JValueE
_ZN3art16OatFileAssistant15GetDexOptNeededENS_14CompilerFilter6FilterENS0_13DexOptTriggerEPNS0_12DexOptStatusE
_ZN3art8verifier20UnresolvedMergedTypeC2ERKNS0_7RegTypeERKNS_9BitVectorEPKNS0_12RegTypeCacheEt
_ZNSt3__113basic_filebufIcNS_11char_traitsIcEEE5imbueERKNS_6localeE
_ZNK3art12TimingLogger19CalculateTimingDataEv
_ZN3art10ThreadPool19SetMaxActiveWorkersEm
_ZN3art6mirror14PrimitiveArrayIsE16GetWithoutChecksEi
_ZN3art11MonitorPool20ReleaseMonitorToPoolEPNS_6ThreadEPNS_7MonitorE
_ZN3art7Runtime23InitNonZygoteOrPostForkEP7_JNIEnvbbNS0_18NativeBridgeActionEPKcb
_ZN3art8verifier12VerifierDeps24MaybeRecordAssignabilityEPS1_RKNS_7DexFileERKNS_3dex8ClassDefERKNS0_7RegTypeESC_
_ZN3art7metrics6statsd11stats_writeEiiilliii
_ZN3art5Locks17thread_exit_cond_E
_ZN3art18ClassLoaderContext22ExtractClassLoaderTypeERKNSt3__112basic_stringIcNS1_11char_traitsIcEENS1_9allocatorIcEEEE
_ZN3art2gc20AllocRecordObjectMap32BroadcastForNewAllocationRecordsEv
_ZN3art5Locks42expected_mutexes_on_weak_ref_access_guard_E
_ZN3art2gc9collector17ConcurrentCopying14DisableMarkingEv
_ZN3art2gc9collector11MarkCompact15CompactionPauseEv
_ZN3art2gc9collector16PartialMarkSweepC1EPNS0_4HeapEbRKNSt3__112basic_stringIcNS5_11char_traitsIcEENS5_9allocatorIcEEEE
_ZN3art6Thread22SetClassLoaderOverrideEP8_jobject
_ZN3art6mirror14PrimitiveArrayIlE7MemmoveEiNS_6ObjPtrIS2_EEii
_ZN3art2ti5AgentaSEOS1_
_ZN3art6mirror5Class15FindStaticFieldENS_6ObjPtrINS0_8DexCacheEEEj
_ZTVN3art13VariantMapKeyINSt3__14listINS_2ti9AgentSpecENS1_9allocatorIS4_EEEEEE
_ZN3art9ArtMethod20FindOverriddenMethodENS_11PointerSizeE
_ZN3art7Runtime24RemoveGeneratedCodeRangeEPKvm
_ZNK3art6Thread15GetCpuMicroTimeEv
_ZN3art16WellKnownClasses26java_nio_ByteBuffer_offsetE
_ZN3art6Thread11DeleteJPeerEP7_JNIEnv
artSet16InstanceFromCode
_ZN3art11ClassLinker17AllocPointerArrayEPNS_6ThreadEm
_ZN3art16WellKnownClasses37dalvik_system_DexPathList_dexElementsE
_ZNK3art11ElfFileImplINS_10ElfTypes32EE19GetSectionHeaderNumEv
_ZNK3art2gc9collector12ImmuneSpaces14CompareByBeginclEPNS0_5space15ContinuousSpaceES6_
_ZN3art9JavaVMExt22DisallowNewWeakGlobalsEv
_ZN3art8verifier12RegTypeCache25UninitializedThisArgumentERKNS0_7RegTypeE
_ZN3art11MonitorList16AllowNewMonitorsEv
_ZN3art2gc9collector17ConcurrentCopying12GetLiveStackEv
_ZNK3com7android3art9CacheInfo16hasArtModuleInfoEv
_ZN3art17InvokeWithJValuesIP10_jmethodIDEENS_6JValueERKNS_33ScopedObjectAccessAlreadyRunnableEP8_jobjectT_PK6jvalue
_ZN3art6mirror14PrimitiveArrayIhE5AllocEPNS_6ThreadEm
_ZN3art32MethodHandleInvokeExactWithFrameEPNS_6ThreadENS_6HandleINS_6mirror12MethodHandleEEENS2_INS3_18EmulatedStackFrameEEE
_ZN3art7Runtime12ParseOptionsERKNSt3__16vectorINS1_4pairINS1_12basic_stringIcNS1_11char_traitsIcEENS1_9allocatorIcEEEEPKvEENS7_ISC_EEEEbPNS_18RuntimeArgumentMapE
_ZN3art18GcVisitedArenaPool6AddMapEm
_ZN3art2gc5space13FreeListSpace16ClampGrowthLimitEm
_ZN3art3jit3JitD2Ev
_ZN3art18RuntimeArgumentMap10CpuAbiListE
_ZN3art7Runtime15GetFaultMessageEv
_ZN3art8ArtField20ProxyFindSystemClassEPKc
_ZNK3art2gc4Heap28DisallowNewAllocationRecordsEv
_ZN3art6mirror6String14AllocFromUtf16EPNS_6ThreadEiPKt
_ZN3art18RuntimeArgumentMap23ForceJavaZygoteForkLoopE
_ZThn16_N3art2gc9collector11MarkCompact17MarkHeapReferenceEPNS_6mirror13HeapReferenceINS3_6ObjectEEEb
_ZN3art7Runtime20EnsurePerfettoPluginEPNSt3__112basic_stringIcNS1_11char_traitsIcEENS1_9allocatorIcEEEE
_ZN3art11ElfFileImplINS_10ElfTypes64EE5StripEPN9unix_file6FdFileEPNSt3__112basic_stringIcNS6_11char_traitsIcEENS6_9allocatorIcEEEE
art_sigsegv_fault
_ZThn136_N3art2gc5space11RegionSpace28LogFragmentationAllocFailureERNSt3__113basic_ostreamIcNS3_11char_traitsIcEEEEm
_ZN3art3jit3Jit8DumpInfoERNSt3__113basic_ostreamIcNS2_11char_traitsIcEEEE
_ZN3art11ClassLinker17FindResolvedFieldENS_6ObjPtrINS_6mirror5ClassEEENS1_INS2_8DexCacheEEENS1_INS2_11ClassLoaderEEEjb
_ZN3art23ThrowClassCastExceptionEPKc
_ZNK3art14AotClassLinker26DenyAccessBasedOnPublicSdkEPKc
_ZN3art22ClassHierarchyAnalysis33RemoveDependentsWithMethodHeadersERKNSt3__113unordered_setIPNS_20OatQuickMethodHeaderENS1_4hashIS4_EENS1_8equal_toIS4_EENS1_9allocatorIS4_EEEE
_ZN3art11ClassLinker15DoResolveStringENS_3dex11StringIndexENS_6ObjPtrINS_6mirror8DexCacheEEE
_ZNK3art11ElfFileImplINS_10ElfTypes32EE17FindDynamicSymbolERKNSt3__112basic_stringIcNS3_11char_traitsIcEENS3_9allocatorIcEEEE
_ZN3art2gc5space13DlMallocSpaceC2EONS_6MemMapEmRKNSt3__112basic_stringIcNS5_11char_traitsIcEENS5_9allocatorIcEEEEPvPhSF_SF_mbm
_ZN3art12ProfileSaver19AddTrackedLocationsERKNSt3__112basic_stringIcNS1_11char_traitsIcEENS1_9allocatorIcEEEERKNS1_6vectorIS7_NS5_IS7_EEEES9_
_ZN3art7metrics19ReportingPeriodSpec5ParseERKNSt3__112basic_stringIcNS2_11char_traitsIcEENS2_9allocatorIcEEEEPS8_
_ZN3art6mirror14PrimitiveArrayItE7MemmoveEiNS_6ObjPtrIS2_EEii
_ZN3art8verifierlsERNSt3__113basic_ostreamIcNS1_11char_traitsIcEEEENS0_10MethodTypeE
_ZN3art27JniNativeInterfaceFunctionsILb0EE19gJniNativeInterfaceE
CpuFeatures_StringView_GetAttributeKeyValue
_ZN3art3jit12JitCodeCache20NotifyCollectionDoneEPNS_6ThreadE
_ZNK3art15instrumentation15Instrumentation21ExceptionHandledEventEPNS_6ThreadENS_6ObjPtrINS_6mirror9ThrowableEEE
_ZN3art16OatFileAssistant24DexLocationToOatFilenameERKNSt3__112basic_stringIcNS1_11char_traitsIcEENS1_9allocatorIcEEEENS_14InstructionSetEPS7_SB_
artAllocStringFromCharsFromCodeRosAlloc
_ZN3art11ClassLinker11LookupClassEPNS_6ThreadEPKcNS_6ObjPtrINS_6mirror11ClassLoaderEEE
_ZN3art2gc9collector9MarkSweep11FinishPhaseEv
_ZNK3art2gc5space11RegionSpace6Region4DumpERNSt3__113basic_ostreamIcNS4_11char_traitsIcEEEE
_ZN3art7Monitor19GetContendedMonitorEPNS_6ThreadE
_ZN3art16WellKnownClasses25java_lang_Thread_priorityE
_ZN3art8verifier12RegisterLine18CheckBinaryOp2addrEPNS0_14MethodVerifierEPKNS_11InstructionERKNS0_7RegTypeES9_S9_b
artAllocStringFromBytesFromCodeRosAlloc
_ZN3art6mirror5Class17GetMethodIdOffsetEPNS_9ArtMethodENS_11PointerSizeE
_ZN3art7Runtime14ReloadAllFlagsERKNSt3__112basic_stringIcNS1_11char_traitsIcEENS1_9allocatorIcEEEE
_ZN3art16RuntimeCallbacks29RemoveDebuggerControlCallbackEPNS_23DebuggerControlCallbackE
_ZNK3art29Riscv64InstructionSetFeatures6EqualsEPKNS_22InstructionSetFeaturesE
_ZNK3art11ElfFileImplINS_10ElfTypes32EE14GetBaseAddressEv
_ZN3art22IndirectReferenceTable19SweepJniWeakGlobalsEPNS_15IsMarkedVisitorE
_ZN3art11interpreter36DoVarHandleCompareAndExchangeAcquireEPNS_6ThreadERNS_11ShadowFrameEPKNS_11InstructionEtPNS_6JValueE
_ZN3art16RuntimeCallbacks7SigQuitEv
_ZThn296_N3art2gc5space13FreeListSpaceD1Ev
_ZN3art6Thread15SetFlipFunctionEPNS_7ClosureE
_ZN3art11Transaction15VisitObjectLogsEPNS_11RootVisitorEPNS_10ArenaStackE
_ZN3art18ClassLoaderContext22GetClassLoaderTypeNameENS0_15ClassLoaderTypeE
mspace_inspect_all
_ZN3art2gc10accounting11SpaceBitmapILm8EE12SetHeapLimitEm
_ZThn8_N3art2gc9collector9SemiSpace8IsMarkedEPNS_6mirror6ObjectE
_ZN3art2gc4Heap25WaitForWorkersToBeCreatedEv
_ZN3art2gc9collector17ConcurrentCopying35MarkFromReadBarrierWithMeasurementsEPNS_6ThreadEPNS_6mirror6ObjectE
_ZN3art11ElfFileImplINS_10ElfTypes32EE17FindSymbolAddressEjRKNSt3__112basic_stringIcNS3_11char_traitsIcEENS3_9allocatorIcEEEEb
_ZN3art8verifier8CharType9instance_E
_ZN3artlsERNSt3__113basic_ostreamIcNS0_11char_traitsIcEEEENS_15LinearAllocKindE
_ZNK3art11ElfFileImplINS_10ElfTypes32EE6GetRelER10elf32_shdrj
_ZNK3art18ClassLoaderContext20ClassLoaderInfoMatchERKNS0_15ClassLoaderInfoES3_RKNSt3__112basic_stringIcNS4_11char_traitsIcEENS4_9allocatorIcEEEEbb
_ZN3art12RuntimeImage16WriteImageToDiskEPNSt3__112basic_stringIcNS1_11char_traitsIcEENS1_9allocatorIcEEEE
_ZNK3art11ElfFileImplINS_10ElfTypes64EE9GetSymbolEjj
_ZN3art9hiddenapi32GetReflectionCallerAccessContextEPNS_6ThreadE
_ZN3art11ImageHeader11kImageMagicE
_ZN3art9JNIEnvExt16GetFunctionTableEb
_ZN3art2gc9collector17ConcurrentCopying21ReenableWeakRefAccessEPNS_6ThreadE
_ZN3art6mirror18EmulatedStackFrame18WriteToShadowFrameEPNS_6ThreadENS_6HandleINS0_10MethodTypeEEEjPNS_11ShadowFrameE
_ZZN3art11CmdlineTypeINS_15ParseStringListILc58EEEE12DescribeTypeEvE3str
_ZTVN3art12UnwindHelperE
_ZN3art6mirror8DexCache10InitializeEPKNS_7DexFileENS_6ObjPtrINS0_11ClassLoaderEEE
_ZNK3art2gc10accounting11SpaceBitmapILm4096EE4DumpEv
_ZN3art9OatHeader15CheckOatVersionENSt3__15arrayIhLm4EEE
_ZN3art16OatFileAssistant12LoadDexFilesERKNS_7OatFileERKNSt3__112basic_stringIcNS4_11char_traitsIcEENS4_9allocatorIcEEEEPNS4_6vectorINS4_10unique_ptrIKNS_7DexFileENS4_14default_deleteISG_EEEENS8_ISJ_EEEE
_ZTVNSt3__120__shared_ptr_emplaceIN3art17ExperimentalFlagsENS_9allocatorIS2_EEEE
_ZN3art2ti27AGENT_ON_LOAD_FUNCTION_NAMEE
_ZNK3art25X86InstructionSetFeatures6EqualsEPKNS_22InstructionSetFeaturesE
_ZNK3art2gc9collector9Iteration22GetEstimatedThroughputEv
_ZN3art7Runtime22DisallowNewSystemWeaksEv
_ZN3art11HeapSampler15GetSampleOffsetEmmPbPm
NterpFilledNewArray
_ZN3art15instrumentation15Instrumentation33UninstrumentQuickAllocEntryPointsEv
_ZN3art2gc9collector9MarkSweep17VerifySystemWeaksEv
_ZN3art6mirror5Class5DepthEv
artAllocObjectFromCodeResolvedRegionTLABInstrumented
_ZN3art3jit3Jit21CanInvokeCompiledCodeEPNS_9ArtMethodE
_ZN3art21QuickExceptionHandler18DumpFramesWithTypeEPNS_6ThreadEb
_ZN3art11ElfFileImplINS_10ElfTypes64EE11CheckAndSetEjPKcPPhPNSt3__112basic_stringIcNS7_11char_traitsIcEENS7_9allocatorIcEEEE
_ZN3art3jit15JitMemoryRegion16FreeWritableDataEPh
_ZN3art7metrics19CreateStatsdBackendEv
_ZN3art29CountInternedStringReferencesERNS_2gc5space10ImageSpaceERKNS_7HashSetINS_6GcRootINS_6mirror6StringEEENS_11InternTable13GcRootEmptyFnENS9_10StringHashENS9_12StringEqualsENS_20GcRootArenaAllocatorIS8_LNS_12AllocatorTagE3EEEEE
_ZN3art2gc4Heap18ClearMarkedObjectsEv
_ZN3art10ThreadList16DumpNativeStacksERNSt3__113basic_ostreamIcNS1_11char_traitsIcEEEE
_ZN3art5TraceC1EPN9unix_file6FdFileEmiNS0_15TraceOutputModeENS0_9TraceModeE
_ZNK3art18ClassLoaderContext19CheckDexFilesOpenedERKNSt3__112basic_stringIcNS1_11char_traitsIcEENS1_9allocatorIcEEEE
_ZN3art13DescribeSpaceENS_6ObjPtrINS_6mirror5ClassEEE
_ZN3art3jit12JitCodeCache21IsMethodBeingCompiledEPNS_9ArtMethodENS_15CompilationKindE
_ZN3art3jni19LocalReferenceTableC2Eb
_ZNK3art11InternTable10StrongSizeEv
_ZN3art2gc9collector17ConcurrentCopying11FinishPhaseEv
_ZN3art16OatFileAssistant16UseFdToReadFilesEv
_ZN3art15MemMapArenaPoolD2Ev
_ZN3art12FaultManager10GetFaultSpEPv
_ZN3art2gc9collector17ConcurrentCopying22DelayReferenceReferentENS_6ObjPtrINS_6mirror5ClassEEENS3_INS4_9ReferenceEEE
_ZN3art16WellKnownClasses41java_lang_invoke_MethodHandle_invokeExactE
_ZTVN3art8verifier7RegTypeE
_ZN3art11ClassLinker21FinishArrayClassSetupENS_6ObjPtrINS_6mirror5ClassEEE
_ZN3art11MonitorList4SizeEv
_ZN3art8verifier14MethodVerifier16VisitStaticRootsEPNS_11RootVisitorE
_ZN3art7Runtime9instance_E
_ZN3art45ThrowIllegalAccessErrorClassForMethodDispatchENS_6ObjPtrINS_6mirror5ClassEEES3_PNS_9ArtMethodENS_10InvokeTypeE
_ZN3art11ElfFileImplINS_10ElfTypes32EE5StripEPN9unix_file6FdFileEPNSt3__112basic_stringIcNS6_11char_traitsIcEENS6_9allocatorIcEEEE
_ZN3art2gc9allocator8RosAlloc11DumpPageMapEv
_ZTVN3art5hprof16FileEndianOutputE
_ZN3art11interpreter16UnstartedRuntime37UnstartedClassGetPublicDeclaredFieldsEPNS_6ThreadEPNS_11ShadowFrameEPNS_6JValueEm
_ZN3art3jit12JitCodeCache44WaitForPotentialCollectionToCompleteRunnableEPNS_6ThreadE
_ZN3art2tilsERNSt3__113basic_ostreamIcNS1_11char_traitsIcEEEERKNS0_5AgentE
_ZNK3art11ElfFileImplINS_10ElfTypes32EE16GetProgramHeaderEj
_ZN3art6HandleINS_6mirror11ConstructorEE10GetFromGdbEv
_ZN3art16OatFileAssistant11OatFileInfo13IsOatLocationEv
_ZN3art7AppInfo18RegisterOdexStatusERKNSt3__112basic_stringIcNS1_11char_traitsIcEENS1_9allocatorIcEEEES9_S9_S9_
_ZTVN3art16ThreadPoolWorkerE
_ZTVNSt3__110__function6__funcIPFbRKNS_12basic_stringIcNS_11char_traitsIcEENS_9allocatorIcEEEEjENS5_ISB_EESA_EE
_ZN3art11annotations21VisitClassAnnotationsENS_6HandleINS_6mirror5ClassEEEPNS0_17AnnotationVisitorE
_ZN3art16WellKnownClasses49org_apache_harmony_dalvik_ddmc_DdmServer_dispatchE
_ZN3art2gc5space13RosAllocSpace14CreateInstanceEONS_6MemMapERKNSt3__112basic_stringIcNS5_11char_traitsIcEENS5_9allocatorIcEEEEPvPhSF_SF_mb
_ZN3artlsERNSt3__113basic_ostreamIcNS0_11char_traitsIcEEEENS_11ClassStatusE
_ZN3art16RuntimeCallbacks14EndDefineClassEv
_ZN3art11interpreter20DoVarHandleGetAndAddEPNS_6ThreadERNS_11ShadowFrameEPKNS_11InstructionEtPNS_6JValueE
_ZN3art11interpreter16UnstartedRuntime35UnstartedJdkUnsafeCompareAndSetLongEPNS_6ThreadEPNS_11ShadowFrameEPNS_6JValueEm
_ZN3art6mirror5Class17FindInstanceFieldENSt3__117basic_string_viewIcNS2_11char_traitsIcEEEES6_
_ZNK3art11Transaction20ResolveMethodTypeLog4UndoEv
artAllocArrayFromCodeResolvedRegionInstrumented
_ZNSt3__113basic_filebufIcNS_11char_traitsIcEEE9underflowEv
_ZN3art11ClassLinker21RegisterDexFileLockedERKNS_7DexFileENS_6ObjPtrINS_6mirror8DexCacheEEENS4_INS5_11ClassLoaderEEE
_ZN3art11ClassLinker29ValidateSuperClassDescriptorsENS_6HandleINS_6mirror5ClassEEE
_ZTVN3art32MoveClassTableToPreZygoteVisitorE
_ZN3art16WellKnownClasses24java_lang_Double_valueOfE
_ZN3art2gc9collector16GarbageCollector13RecordFreeLOSERKNS1_14ObjectBytePairE
_ZN3art2gc9collector16GarbageCollector11ScopedPauseC2EPS2_b
_ZNK3art15instrumentation15Instrumentation25IsDeoptimizedMethodsEmptyEv
_ZTVN3art23RecordAnnotationVisitorE
_ZN3art2gc9collector9MarkSweep11ReMarkRootsEv
_ZNSt3__114__split_bufferIPmRNS_9allocatorIS1_EEE9push_backEOS1_
_ZN3art16WellKnownClasses34java_util_function_Consumer_acceptE
_ZN3art16WellKnownClasses23java_lang_Thread_daemonE
_ZN3artlsERNSt3__113basic_ostreamIcNS0_11char_traitsIcEEEENS_16OatFileAssistant9OatStatusE
_ZN3art18RuntimeArgumentMap21CorePlatformApiPolicyE
artAllocStringObjectBumpPointerInstrumented
_ZN3art11ClassLinker9SetIMTRefEPNS_9ArtMethodES2_S2_PbPS2_
_ZN3art6Thread21SweepInterpreterCacheEPNS_15IsMarkedVisitorE
_ZN3art2gc5space10ImageSpace13LoadBootImageERKNSt3__16vectorINS3_12basic_stringIcNS3_11char_traitsIcEENS3_9allocatorIcEEEENS8_ISA_EEEESE_RKNS4_IiNS8_IiEEEESI_SI_SI_SE_NS_14InstructionSetEbbmbPNS4_INS3_10unique_ptrIS2_NS3_14default_deleteIS2_EEEENS8_ISN_EEEEPNS_6MemMapE
_ZNK3art2gc13TaskProcessor9IsRunningEv
_ZGVZN3art11CmdlineTypeINS_6MemoryILm1EEEE12DescribeTypeEvE3str
_ZTVNSt3__120__shared_ptr_emplaceIPFiP7__sFILEPKcSt9__va_listENS_9allocatorIS7_EEEE
CpuFeatures_GetBasePlatformPointer
_ZN3art7Runtime25SetImtUnimplementedMethodEPNS_9ArtMethodE
_ZN3art9JavaVMExt12AddGlobalRefEPNS_6ThreadENS_6ObjPtrINS_6mirror6ObjectEEE
mspace_independent_comalloc
_ZN3art2gc10accounting6Bitmap16CreateFromMemMapEONS_6MemMapEm
_ZNK3art8verifier12RegTypeCache24RegTypeFromPrimitiveTypeENS_9Primitive4TypeE
_ZNK3com7android3art22SystemServerComponents12getComponentEv
_ZN3art2gc18ReferenceProcessorC2Ev
_ZN3art6mirror14PrimitiveArrayIhE16GetWithoutChecksEi
_ZN3art2gc9collector9MarkSweep18MarkNonThreadRootsEv
_ZN3art2gc4Heap26FindRememberedSetFromSpaceEPNS0_5space5SpaceE
_ZN3art2gc5space16BumpPointerSpace12AllocNewTlabEPNS_6ThreadEmPm
_ZN3art18RuntimeArgumentMap17DisableExplicitGCE
_ZNK3art8verifier12VerifierDeps20ValidateDependenciesEPNS_6ThreadENS_6HandleINS_6mirror11ClassLoaderEEERKNSt3__16vectorIPKNS_7DexFileENS8_9allocatorISC_EEEEPNS8_12basic_stringIcNS8_11char_traitsIcEENSD_IcEEEE
_ZN3art2gc4Heap12ProcessCardsEPNS_12TimingLoggerEbbb
_ZNK3art22IndirectReferenceTable12FreeCapacityEv
_ZN3art6mirror5Class15FindConstructorENSt3__117basic_string_viewIcNS2_11char_traitsIcEEEENS_11PointerSizeE
_ZN3art6mirror5Class24GetInstanceFieldIdOffsetEPNS_8ArtFieldE
_ZN3art6mirror6Method19CreateFromArtMethodILNS_11PointerSizeE4EEENS_6ObjPtrIS1_EEPNS_6ThreadEPNS_9ArtMethodE
_ZN3art2gc9collector17ConcurrentCopying21LogFromSpaceRefHolderEPNS_6mirror6ObjectENS_12MemberOffsetE
_ZNK3art2gc14ReferenceQueue4DumpERNSt3__113basic_ostreamIcNS2_11char_traitsIcEEEE
_ZN3art17ReaderWriterMutex13ExclusiveLockEPNS_6ThreadE
_ZN3art11annotations19MethodIsNeverInlineERKNS_7DexFileERKNS_3dex8ClassDefEj
_ZN3art3jit12JitCodeCache18MoveObsoleteMethodEPNS_9ArtMethodES3_
_ZN3art7Monitor20GetLockOwnerThreadIdENS_6ObjPtrINS_6mirror6ObjectEEE
_ZN3art16WellKnownClasses22java_nio_ByteBuffer_hbE
_ZN3art7Monitor7TryLockEPNS_6ThreadEb
_ZN3art11Transaction9ObjectLog14Log64BitsValueENS_12MemberOffsetEmb
artAllocArrayFromCodeResolvedTLABInstrumented
_ZN3art6mirror9Throwable8GetCauseEv
_ZN3art3jit15JitMemoryRegion10CommitDataENS_8ArrayRefIKhEERKNSt3__16vectorINS_6HandleINS_6mirror6ObjectEEENS5_9allocatorISA_EEEES4_
_ZN3art6mirror14PrimitiveArrayIfE15AllocateAndFillEPNS_6ThreadEPKfm
_ZN3art8verifier12RegTypeCache15MatchDescriptorEmRKNSt3__117basic_string_viewIcNS2_11char_traitsIcEEEEb
_ZNSt3__113basic_filebufIcNS_11char_traitsIcEEE8overflowEi
artSet32StaticFromCode
_ZN3art14AotClassLinkerC1EPNS_11InternTableE
_ZN3art5Locks22jni_weak_globals_lock_E
_ZNK3art12StackVisitor20GetNumberOfRegistersEPNS_8CodeInfoEi
_ZNK3art7OatFile8OatClass12GetOatMethodEj
_ZTVN3art30VisitClassLoaderClassesVisitor32DefiningClassLoaderFilterVisitorE
_ZN3art2gc9collector9MarkSweep10VisitRootsEPPNS_6mirror19CompressedReferenceINS3_6ObjectEEEmRKNS_8RootInfoE
_ZN3art16ScopedSuspendAllC2EPKcb
_ZN3art10SdkChecker6CreateERKNSt3__112basic_stringIcNS1_11char_traitsIcEENS1_9allocatorIcEEEEPS7_
_ZN3art11ClassLinker19GetRegisteredNativeEPNS_6ThreadEPNS_9ArtMethodE
_ZN3art3Dbg19DdmSendHeapSegmentsEb
_ZN3art11annotations30GetSignatureAnnotationForFieldEPNS_8ArtFieldE
_ZN3art2gc9collector17ConcurrentCopying8IsMarkedEPNS_6mirror6ObjectE
_ZN3art3jit12JitCodeCache10FreeLockedEPNS0_15JitMemoryRegionEPKhS5_
_ZN3artlsERNSt3__113basic_ostreamIcNS0_11char_traitsIcEEEERKNS_25BaseReflectiveHandleScopeE
_ZN3art7Monitor6NotifyEPNS_6ThreadE
_ZNK3art6Thread17GetNativePriorityEv
_ZNSt3__17getlineIcNS_11char_traitsIcEENS_9allocatorIcEEEERNS_13basic_istreamIT_T0_EES9_RNS_12basic_stringIS6_S7_T1_EES6_
_ZN3art12FaultManagerD2Ev
_ZN3art2gc9allocator8RosAlloc10UsableSizeEPKv
_ZN3art2gc9collector9MarkSweep13RecursiveMarkEv
_ZN3art6HandleINS_6mirror14PrimitiveArrayIlEEE13ObjectFromGdbEv
_ZTVN3art21RuntimeArgumentMapKeyINS_9ParseListIiLc58EEEEE
_ZN3art8verifier14MethodVerifier14CreateVerifierEPNS_6ThreadEPNS0_12VerifierDepsEPKNS_7DexFileENS_6HandleINS_6mirror8DexCacheEEENS9_INSA_11ClassLoaderEEERKNS_3dex8ClassDefEPKNSF_8CodeItemEjjbbbj
_ZN3art7Runtime22CreateResolutionMethodEv
_ZN3art2gc10accounting11SpaceBitmapILm4096EE6CreateERKNSt3__112basic_stringIcNS4_11char_traitsIcEENS4_9allocatorIcEEEEPhm
_ZN3art37PLUGIN_DEINITIALIZATION_FUNCTION_NAMEE
_ZN3art8verifier14MethodVerifierD1Ev
_ZTVN3art25ArmInstructionSetFeaturesE
_ZN3com7android4apex12ApexInfoList4readEPN8tinyxml210XMLElementE
_ZN3art2gc10accounting11SpaceBitmapILm8EE13OffsetToIndexEm
_ZN3art6HandleINS_6mirror14FieldVarHandleEE13ObjectFromGdbEv
_ZN3art6mirror5Class22GetDeclaredConstructorEPNS_6ThreadENS_6HandleINS0_11ObjectArrayIS1_EEEENS_11PointerSizeE
_ZNK3com7android4apex8ApexInfo25getPreinstalledModulePathEv
_ZN3art11annotations36GetNativeMethodAnnotationAccessFlagsERKNS_7DexFileERKNS_3dex8ClassDefEj
_ZN3art11ElfFileImplINS_10ElfTypes64EE4OpenEPN9unix_file6FdFileEiibPNSt3__112basic_stringIcNS6_11char_traitsIcEENS6_9allocatorIcEEEE
_ZNK3art25X86InstructionSetFeatures10HasAtLeastEPKNS_22InstructionSetFeaturesE
_ZN3art2gc9collector11MarkCompact15ExpandMarkStackEv
_ZTVN3art2gc5space11ZygoteSpaceE
_ZN3art9hiddenapi6detail15MemberSignature22MemberNameAndTypeMatchERKS2_
_ZN3art11interpreter30SetStringInitValueToAllAliasesEPNS_11ShadowFrameEtNS_6JValueE
_ZN3art6mirror5Class25GetDeclaredMethodInternalILNS_11PointerSizeE4EEENS_6ObjPtrINS0_6MethodEEEPNS_6ThreadENS4_IS1_EENS4_INS0_6StringEEENS4_INS0_11ObjectArrayIS1_EEEERKNSt3__18functionIFNS_9hiddenapi13AccessContextEvEEE
_ZNK3art6mirror14PrimitiveArrayIdE7GetDataEv
_ZN3art16RuntimeCallbacks22MonitorContendedLockedEPNS_7MonitorE
_ZN3art11ClassLinker17CreateProxyMethodENS_6HandleINS_6mirror5ClassEEEPNS_9ArtMethodES6_
_ZN3art11ClassLinker15DoResolveStringENS_3dex11StringIndexENS_6HandleINS_6mirror8DexCacheEEE
_ZN3art2gc5space10ImageSpace17FindImageFilenameEPKcNS_14InstructionSetEPNSt3__112basic_stringIcNS6_11char_traitsIcEENS6_9allocatorIcEEEEPb
_ZN3art7Runtime23VisitNonConcurrentRootsEPNS_11RootVisitorENS_14VisitRootFlagsE
_ZTVN3art8verifier17UninitializedTypeE
_ZN3com7android4apex17parseApexInfoListEPKc
_ZN3artlsERNSt3__113basic_ostreamIcNS0_11char_traitsIcEEEENS_20ReflectionSourceTypeE
_ZN3art28UpdateReadBarrierEntrypointsEPNS_16QuickEntryPointsEb
_ZN3art16CumulativeLoggerC2ERKNSt3__112basic_stringIcNS1_11char_traitsIcEENS1_9allocatorIcEEEE
_ZN3art13ObjectTryLockINS_6mirror5ClassEED2Ev
_ZN3art25ThrowNullPointerExceptionEv
mspace_footprint
_ZN3art25ArmInstructionSetFeatures9FromHwcapEv
artGetBooleanInstanceFromCompiledCode
_ZNK3art2gc4Heap32FindDiscontinuousSpaceFromObjectENS_6ObjPtrINS_6mirror6ObjectEEEb
_ZN3art11annotations26GetExceptionTypesForMethodEPNS_9ArtMethodE
_ZN3art2gc10accounting11SpaceBitmapILm8EE14OffsetBitIndexEm
_ZN3art22IndirectReferenceTableD1Ev
_ZN3art11interpreter16UnstartedRuntime34UnstartedJdkUnsafePutOrderedObjectEPNS_6ThreadEPNS_11ShadowFrameEPNS_6JValueEm
_ZN3art10ObjectLockINS_6mirror6ObjectEED2Ev
artSet64InstanceFromCode
_ZNK3art11ElfFileImplINS_10ElfTypes64EE18GetRelSectionStartER10elf64_shdr
_ZN3art2gc9collector12ImmuneSpaces5ResetEv
_ZN3art2gc5spacelsERNSt3__113basic_ostreamIcNS2_11char_traitsIcEEEERKNS1_15RelocationRangeE
artAllocObjectFromCodeInitializedRosAllocInstrumented
_ZN3art2gc4Heap13ThreadFlipEndEPNS_6ThreadE
_ZN3art3jit3Jit16CreateThreadPoolEv
_ZN3art9JavaVMExt25UnloadBootNativeLibrariesEv
_ZN3art16OatFileAssistant11OatFileInfo6StatusEv
_ZN3art8verifier12VerifierDeps9ClearDataERKNSt3__16vectorIPKNS_7DexFileENS2_9allocatorIS6_EEEE
_ZN3art33ThrowIncompatibleClassChangeErrorENS_6ObjPtrINS_6mirror5ClassEEEPKcz
_ZN3art2gc9collector9MarkSweep22DelayReferenceReferentENS_6ObjPtrINS_6mirror5ClassEEENS3_INS4_9ReferenceEEE
_ZN3art2gc4Heap7StartGCEPNS_6ThreadENS0_7GcCauseENS0_13CollectorTypeE
_ZN3art2gc14ReferenceQueue11UpdateRootsEPNS_15IsMarkedVisitorE
_ZN3art6mirror5Class23FindDeclaredStaticFieldENSt3__117basic_string_viewIcNS2_11char_traitsIcEEEES6_
_ZNK3art10OatDexFile18IsBackedByVdexOnlyEv
_ZTVN3art12StackVisitorE
_ZTVN3art8verifier8CharTypeE
NterpAllocateObject
_ZTVN3art2gc5space21MemoryToolMallocSpaceINS1_13DlMallocSpaceELm8ELb1ELb0EEE
g_art_sizeof_jit_descriptor
_ZN3art16OatFileAssistant21GetOptimizationStatusERKNSt3__112basic_stringIcNS1_11char_traitsIcEENS1_9allocatorIcEEEENS_14InstructionSetEPS7_SB_PNS_23OatFileAssistantContextE
_ZNK3art6Thread14CanLoadClassesEv
_ZN3art2gc4Heap17GetTotalGcCpuTimeEv
_ZN3art10ThreadList21DumpUnattachedThreadsERNSt3__113basic_ostreamIcNS1_11char_traitsIcEEEEb
_ZN3art8verifier14MethodVerifierC2EPNS_6ThreadEPNS_11ClassLinkerEPNS_9ArenaPoolEPNS0_12VerifierDepsEPKNS_7DexFileERKNS_3dex8ClassDefEPKNSD_8CodeItemEjbbb
_ZNK3com7android4apex8ApexInfo24hasProvideSharedApexLibsEv
_ZN3art11annotations20MethodIsNeverCompileERKNS_7DexFileERKNS_3dex8ClassDefEj
_ZN3art7ElfFile17FindSymbolAddressEjRKNSt3__112basic_stringIcNS1_11char_traitsIcEENS1_9allocatorIcEEEEb
_ZN3art3jni12JniIdManager22GetLinearSearchStartIdINS_9ArtMethodEEEmNS_16ReflectiveHandleIT_EE
_ZN3art16WellKnownClasses42java_lang_Thread_dispatchUncaughtExceptionE
_ZN3art8verifierlsERNSt3__113basic_ostreamIcNS1_11char_traitsIcEEEENS0_11VerifyErrorE
_ZN3art3x86lsERNSt3__113basic_ostreamIcNS1_11char_traitsIcEEEERKNS0_8RegisterE
_ZNK3com7android3art16KeyValuePairList12getFirstItemEv
_ZN3art11interpreter16UnstartedRuntime35UnstartedJdkUnsafeGetObjectVolatileEPNS_6ThreadEPNS_11ShadowFrameEPNS_6JValueEm
_ZTVN3art21RuntimeArgumentMapKeyINS_16TraceClockSourceEEE
_ZN3art15gUseUserfaultfdE
_ZN3art9ArtMethod19FromReflectedMethodERKNS_33ScopedObjectAccessAlreadyRunnableEP8_jobject
_ZN3art2gc4Heap24DecrementDisableMovingGCEPNS_6ThreadE
_ZNK3art11ElfFileImplINS_10ElfTypes64EE12GetSymbolNumER10elf64_shdr
_ZN3art6mirror6Object17FindFieldByOffsetENS_12MemberOffsetE
_ZN3art11interpreter27DoVarHandleGetAndAddAcquireEPNS_6ThreadERNS_11ShadowFrameEPKNS_11InstructionEtPNS_6JValueE
_ZN3art2gc9allocator8RosAlloc9FreePagesEPNS_6ThreadEPvb
_ZN3art2gc10accounting27ModUnionTableReferenceCache15ContainsCardForEm
_ZNK3art8verifier7RegType21IsJavaLangObjectArrayEv
_ZN3art11ClassLinker20LookupPrimitiveClassEc
_ZN3art3Dbg26thread_lifecycle_callback_E
_ZNK3art3jit3Jit15CanEncodeStringENS_6ObjPtrINS_6mirror6StringEEEb
_ZN3art23OatFileAssistantContextC1ENSt3__110unique_ptrINS0_14RuntimeOptionsENS1_14default_deleteIS3_EEEE
_ZN3art8verifier12RegisterLine27CheckBinaryOp2addrWideShiftEPNS0_14MethodVerifierEPKNS_11InstructionERKNS0_7RegTypeES9_S9_
_ZN3art14AotClassLinker13CanAllocClassEv
_ZN3art6Thread37DeoptimizeWithDeoptimizationExceptionEPNS_6JValueE
_ZN3art2gc13TaskProcessorC1Ev
_ZN3art6HandleINS_6mirror6MethodEE13ObjectFromGdbEv
_ZTVNSt3__120__shared_ptr_emplaceINS_6vectorINS_12basic_stringIcNS_11char_traitsIcEENS_9allocatorIcEEEENS5_IS7_EEEENS5_IS9_EEEE
_ZN3art8verifier9ShortType9instance_E
_ZN3art11annotations22GetAnnotationsForClassENS_6HandleINS_6mirror5ClassEEE
_ZN3art2gc9collector17ConcurrentCopying10DumpGcRootEPNS_6mirror6ObjectE
_ZN3art11interpreter16UnstartedRuntime34UnstartedJNIFloatFloatToRawIntBitsEPNS_6ThreadEPNS_9ArtMethodEPNS_6mirror6ObjectEPjPNS_6JValueE
_ZN3art11Transaction20ResolveMethodTypeLogC2ENS_6ObjPtrINS_6mirror8DexCacheEEENS_3dex10ProtoIndexE
_ZN3art15gUseReadBarrierE
_ZN3art22ClassHierarchyAnalysis37InvalidateSingleImplementationMethodsERNSt3__113unordered_setIPNS_9ArtMethodENS1_4hashIS4_EENS1_8equal_toIS4_EENS1_9allocatorIS4_EEEE
_ZN3art16WellKnownClasses32java_util_Collections_EMPTY_LISTE
_ZN3art22GetNativeDebugInfoLockEv
_ZN3art3jit12JitCodeCacheD1Ev
_ZN3art9OatHeaderC2ENS_14InstructionSetEPKNS_22InstructionSetFeaturesEjPKNS_7SafeMapINSt3__112basic_stringIcNS6_11char_traitsIcEENS6_9allocatorIcEEEESC_NS6_4lessISC_EENSA_INS6_4pairIKSC_SC_EEEEEE
_ZN3com7android3art10ModuleInfoC1ENSt3__112basic_stringIcNS3_11char_traitsIcEENS3_9allocatorIcEEEElS9_l
_ZN3art7Runtime19SetCalleeSaveMethodEPNS_9ArtMethodENS_14CalleeSaveTypeE
_ZN3art12FaultManager13RemoveHandlerEPNS_12FaultHandlerE
_ZN3art2gc9collector12ImmuneSpaces25CreateLargestImmuneRegionEv
_ZN3art3jit10JitOptions26CreateFromRuntimeArgumentsERKNS_18RuntimeArgumentMapE
_ZGVZN3art11CmdlineTypeINS_9ParseListIiLc58EEEE12DescribeTypeEvE3str
_ZN3art8verifier12RegTypeCacheC1EPNS_11ClassLinkerEbRNS_20ScopedArenaAllocatorEb
_ZN3com7android4apex11printIndentEv
_ZN3art16WellKnownClasses31java_lang_ClassLoader_loadClassE
_ZN3art2gc10accounting17MemoryRangeBitmapILm1024EE6CreateERKNSt3__112basic_stringIcNS4_11char_traitsIcEENS4_9allocatorIcEEEEmm
_ZN3art7OatFile4OpenEiRKNSt3__112basic_stringIcNS1_11char_traitsIcEENS1_9allocatorIcEEEES9_bbNS_8ArrayRefIS8_EENSA_IKiEEPNS_6MemMapEPS7_
_ZN3art2gc5space13RosAllocSpace17GetFootprintLimitEv
_ZNK3art7OatFile6DexEndEv
_ZTVN3art2gc9collector11MarkCompact26ConcurrentCompactionGcTaskE
_ZN3art11InternTable6InsertENS_6ObjPtrINS_6mirror6StringEEEjbm
_ZN3art3jit12JitCodeCache19DataCacheSizeLockedEv
_ZN3art11MemMapArenaC2EmbPKc
_ZN3art10ThreadList12GetLockOwnerEv
_ZTVN3art19ReferenceMapVisitorINS_19RootCallbackVisitorELb0EEE
_ZN3art2gc5space11RegionSpace6Region6UnfreeEPS2_j
_ZN3art9JNIEnvExt15table_override_E
_ZN3art10ThreadPool10GetWorkersEv
_ZN3art2gc13TaskProcessor19UpdateTargetRunTimeEPNS_6ThreadEPNS0_8HeapTaskEm
_ZN3art11interpreter16UnstartedRuntime31UnstartedClassGetEnclosingClassEPNS_6ThreadEPNS_11ShadowFrameEPNS_6JValueEm
artAllocStringObjectRosAllocInstrumented
_ZN3com7android3art14ModuleInfoList4readEPN8tinyxml210XMLElementE
_ZN3art10ClassTable19InsertOatFileLockedEPKNS_7OatFileE
_ZTVN3art2gc5space13RosAllocSpaceE
_ZN3art3jit12JitCodeCache6CommitEPNS_6ThreadEPNS0_15JitMemoryRegionEPNS_9ArtMethodENS_8ArrayRefIKhEESA_SA_RKNSt3__16vectorINS_6HandleINS_6mirror6ObjectEEENSB_9allocatorISG_EEEESA_RKNSC_IhNSH_IhEEEEbNS_15CompilationKindEbRKNSB_3setIS7_NSB_4lessIS7_EENS_21ArenaAllocatorAdapterIS7_EEEE
_ZN3art9OatHeader20SetOatDexFilesOffsetEj
_ZTVN3art10ThreadPoolE
_ZN3art2gc10accounting11SpaceBitmapILm4096EE3SetEPKNS_6mirror6ObjectE
_ZN3art12ProfileSaver26GetClassesAndMethodsHelper13UpdateProfileERKNSt3__13setINS2_12basic_stringIcNS2_11char_traitsIcEENS2_9allocatorIcEEEENS2_4lessIS9_EENS7_IS9_EEEEPNS_22ProfileCompilationInfoE
_ZN3art7Runtime15RegisterAppInfoERKNSt3__112basic_stringIcNS1_11char_traitsIcEENS1_9allocatorIcEEEERKNS1_6vectorIS7_NS5_IS7_EEEES9_S9_i
_ZN3art2ti5AgentD1Ev
_ZN3art10ThreadList34SuspendAllDaemonThreadsForShutdownEv
_ZN3art11ClassLinker15RegisterDexFileERKNS_7DexFileENS_6ObjPtrINS_6mirror11ClassLoaderEEE
_ZNK3art11ElfFileImplINS_10ElfTypes64EE22FindProgamHeaderByTypeEj
_ZN3art11interpreter34DoVarHandleGetAndBitwiseXorReleaseEPNS_6ThreadERNS_11ShadowFrameEPKNS_11InstructionEtPNS_6JValueE
_ZN3art11interpreter40ThrowNullPointerExceptionFromInterpreterEv
_ZN3art7Runtime26InitPlatformSignalHandlersEv
artAllocObjectFromCodeWithChecksRegionTLABInstrumented
_ZN3art7metrics6statsd11stats_writeEii
_ZN3art11ClassLinker11DefineClassEPNS_6ThreadEPKcmNS_6HandleINS_6mirror11ClassLoaderEEERKNS_7DexFileERKNS_3dex8ClassDefE
_ZN3art7OatFile4OpenEiiiRKNSt3__112basic_stringIcNS1_11char_traitsIcEENS1_9allocatorIcEEEEbbNS_8ArrayRefIS8_EENSA_IKiEEPNS_6MemMapEPS7_
_ZN3art3jit3Jit13PreZygoteForkEv
_ZNK3art12TimingLogger4DumpERNSt3__113basic_ostreamIcNS1_11char_traitsIcEEEEPKc
_ZN3art14OatFileManager21RegisterImageOatFilesERKNSt3__16vectorIPNS_2gc5space10ImageSpaceENS1_9allocatorIS6_EEEE
_ZN3art7MonitorD2Ev
_ZN3art16OatFileAssistant34ZipFileOnlyContainsUncompressedDexEv
_ZN3art2gc9allocator8RosAlloc9FootprintEv
_ZNK3art2gc10accounting17MemoryRangeBitmapILm1024EE16AddrFromBitIndexEm
_ZN3art11interpreter16UnstartedRuntime43UnstartedJNIThrowableNativeFillInStackTraceEPNS_6ThreadEPNS_9ArtMethodEPNS_6mirror6ObjectEPjPNS_6JValueE
_ZNK3art2gc10accounting17MemoryRangeBitmapILm8EE10HasAddressEm
_ZTVN3art3jni30JniIdDeferStackReflectiveScopeE
_ZN3art6Thread19ClearSuspendBarrierEPNS_6AtomicIiEE
artSet8StaticFromCode
_ZN3art9CmplFloatEff
_ZTVN3art9BaseMutexE
_ZN3art16WellKnownClasses39libcore_reflect_AnnotationMember__arrayE
_ZNK3art11ElfFileImplINS_10ElfTypes32EE19GetRelaSectionStartER10elf32_shdr
_ZN3art18RuntimeArgumentMap11HeapMinFreeE
_ZN3art2gc9collector11MarkCompact27IsNullOrMarkedHeapReferenceEPNS_6mirror13HeapReferenceINS3_6ObjectEEEb
_ZN3art14OatFileManager34WaitForBackgroundVerificationTasksEv
_ZN3art16ThreadPoolWorker18GetPthreadPriorityEv
JNI_CreateJavaVM
_ZN3art18RuntimeArgumentMap16MethodTraceClockE
_ZN3art6Thread13InitAfterForkEv
_ZNK3com7android3art10ModuleInfo7hasNameEv
_ZN3art12ProfileSaverC2ERKNS_19ProfileSaverOptionsEPNS_3jit12JitCodeCacheE
_ZN3art18RuntimeArgumentMap14MonitorTimeoutE
_ZN3art10ThreadListC2Em
_ZNK3art2gc4Heap22SweepAllocationRecordsEPNS_15IsMarkedVisitorE
_ZN3art2gc5space16BumpPointerSpace16CreateFromMemMapERKNSt3__112basic_stringIcNS3_11char_traitsIcEENS3_9allocatorIcEEEEONS_6MemMapE
_ZN3art2gc5space19LargeObjectMapSpace6CreateERKNSt3__112basic_stringIcNS3_11char_traitsIcEENS3_9allocatorIcEEEE
_ZNK3art9OatHeader17GetCompilerFilterEv
_ZNK3com7android3art22SystemServerComponents12hasComponentEv
_ZN3art11ClassLinker11LookupClassEPNS_6ThreadEPKcmNS_6ObjPtrINS_6mirror11ClassLoaderEEE
_ZNK3art9OatHeader35GetJniDlsymLookupCriticalTrampolineEv
_ZN3art9OatHeader10kTrueValueE
_ZN3art18GcVisitedArenaPoolD1Ev
_ZN3art7Runtime20RecordWriteFieldByteEPNS_6mirror6ObjectENS_12MemberOffsetEab
_ZN3art2gc4Heap32CheckPreconditionsForAllocObjectENS_6ObjPtrINS_6mirror5ClassEEEm
_ZTVN3art2gc25ZygoteCompactingCollectorE
_ZN3art7ElfFile4LoadEPN9unix_file6FdFileEbbPNS_6MemMapEPNSt3__112basic_stringIcNS6_11char_traitsIcEENS6_9allocatorIcEEEE
_ZTVNSt3__110__function6__funcIZN3art9hiddenapi6detail11GetDexFlagsINS2_9ArtMethodEEEjPT_EUlRKNS2_13ClassAccessor6MethodEE_NS_9allocatorISD_EEFvSC_EEE
_ZN3art14OatFileManagerD2Ev
_ZN3art21QuickExceptionHandler30DeoptimizePartialFragmentFixupEv
_ZN3art11interpreter16UnstartedRuntime26UnstartedReferenceRefersToEPNS_6ThreadEPNS_11ShadowFrameEPNS_6JValueEm
_ZN3art16OatFileAssistant16GetDexOptTriggerENS_14CompilerFilter6FilterEbb
_ZNK3art8UContext4DumpERNSt3__113basic_ostreamIcNS1_11char_traitsIcEEEE
_ZTVN3art13VariantMapKeyINS_8verifier10VerifyModeEEE
_ZN3art3jit12JitCodeCache18LookupMethodHeaderEmPNS_9ArtMethodE
_ZN3art2gc9collector9SemiSpace10MarkObjectEPNS_6mirror6ObjectE
_ZN3art11ImageHeader13kImageVersionE
_ZN3art2gc5space13RosAllocSpace24RevokeThreadLocalBuffersEPNS_6ThreadE
_ZN3art21QuickExceptionHandlerC2EPNS_6ThreadEb
_ZN3com7android3art14ModuleInfoListC2ENSt3__16vectorINS1_10ModuleInfoENS3_9allocatorIS5_EEEE
_ZN3art11ClassLinker26FindClassInSharedLibrariesEPNS_6ThreadEPKcmNS_6HandleINS_6mirror11ClassLoaderEEEPNS_6ObjPtrINS6_5ClassEEE
_ZNK3art2gc10accounting11SpaceBitmapILm8EE7GetNameEv
_ZN3art6HandleINS_6mirror6ObjectEE10GetFromGdbEv
_ZN3art5Locks12jni_id_lock_E
_ZN3art11ClassLinker22LoadSuperAndInterfacesENS_6HandleINS_6mirror5ClassEEERKNS_7DexFileE
_ZN3art8verifier9ShortType14CreateInstanceENS_6ObjPtrINS_6mirror5ClassEEERKNSt3__117basic_string_viewIcNS6_11char_traitsIcEEEEt
_ZTVN3art32BuildNativeCallFrameStateMachineINS_14FillNativeCallEEE
_ZN3art5Locks19verifier_deps_lock_E
_ZN3art6Thread16FullSuspendCheckEb
_ZNK3art11ElfFileImplINS_10ElfTypes32EE11GetFilePathEv
_ZN3art2gc18ReferenceProcessor15DisableSlowPathEPNS_6ThreadE
_ZN3art7metrics15MetricsReporterC1ERKNS0_15ReportingConfigEPNS_7RuntimeE
_ZN3art6Thread14CreateCallbackEPv
_ZN3art2gc5space10ImageSpaceD2Ev
_ZN3art3jit3Jit13CompileMethodEPNS_9ArtMethodEPNS_6ThreadENS_15CompilationKindEb
_ZN3art3jni17SmallLrtAllocatorC2Ev
_ZN3art20InvalidReceiverErrorENS_6ObjPtrINS_6mirror6ObjectEEENS0_INS1_5ClassEEE
_ZN3art7MonitorC2EPNS_6ThreadES2_NS_6ObjPtrINS_6mirror6ObjectEEEi
_ZNK3art2gc10accounting11SpaceBitmapILm8EE4SizeEv
_ZN3art11interpreter35DoVarHandleWeakCompareAndSetAcquireEPNS_6ThreadERNS_11ShadowFrameEPKNS_11InstructionEtPNS_6JValueE
_ZTVN3art6mirror6Object8AccessorItEE
_ZN3art7Runtime25RecordStrongStringRemovalENS_6ObjPtrINS_6mirror6StringEEE
_ZN3art7Runtime19GetRuntimeCallbacksEv
_ZN3art2gc9collector11MarkCompact9CopyIoctlEPvS3_
_ZN3art3jit3Jit19jit_library_handle_E
_ZTVN3art34GetQuickReferenceArgumentAtVisitorE
_ZN3art15CompatFramework12ReportChangeEmNS0_11ChangeStateE
_ZNK3art7ElfFile24FindDynamicSymbolAddressERKNSt3__112basic_stringIcNS1_11char_traitsIcEENS1_9allocatorIcEEEE
_ZN3art2gc9collector11MarkCompact17InitializeInfoMapEPhm
_ZN3art2gc9collector17ConcurrentCopying29IssueDisableMarkingCheckpointEv
_ZN3art18RuntimeArgumentMap6ZygoteE
_ZTVN3art21RuntimeArgumentMapKeyINS_15ParseStringListILc58EEEEE
_ZTVNSt3__120__shared_ptr_emplaceIjNS_9allocatorIjEEEE
_ZN3art16WellKnownClasses27java_lang_Thread_nativePeerE
_ZN3art11Transaction15InternStringLogC2ENS_6ObjPtrINS_6mirror6StringEEENS1_10StringKindENS1_8StringOpE
_ZN3art8ArtField11PrettyFieldEb
_ZN3art16RuntimeCallbacks14ClassPreDefineEPKcNS_6HandleINS_6mirror5ClassEEENS3_INS4_11ClassLoaderEEERKNS_7DexFileERKNS_3dex8ClassDefEPPSA_PPSE_
_ZN3art2gc9allocator8RosAlloc10AllocPagesEPNS_6ThreadEmh
_ZN3art10ThreadPool12StartWorkersEPNS_6ThreadE
_ZN3art7Barrier4PassEPNS_6ThreadE
_ZN3art16CumulativeLogger7SetNameERKNSt3__112basic_stringIcNS1_11char_traitsIcEENS1_9allocatorIcEEEE
_ZNK3art11ElfFileImplINS_10ElfTypes64EE17FindDynamicByTypeEi
_ZN3art5Trace17EncodeTraceMethodEPNS_9ArtMethodE
_ZN3art8verifier12VerifierDeps20ParseVerifiedClassesERKNSt3__16vectorIPKNS_7DexFileENS2_9allocatorIS6_EEEENS_8ArrayRefIKhEEPNS3_INS3_IbNS7_IbEEEENS7_ISG_EEEE
artAllocObjectFromCodeWithChecksRegion
artGetObjStaticFromCompiledCode
_ZNK3art2gc10accounting17MemoryRangeBitmapILm1024EE10HasAddressEm
_ZN3art11HeapSampler18AdjustSampleOffsetEm
_ZN3art27RemoveNativeDebugInfoForDexEPNS_6ThreadEPKNS_7DexFileE
_ZN3art7Monitor16GetLockOwnerInfoEPPNS_9ArtMethodEPjPNS_6ThreadE
_ZN3art11MonitorInfoC2ENS_6ObjPtrINS_6mirror6ObjectEEE
_ZTVN3art10ElfOatFileE
_ZN3art11ClassLinker35GetHoldingClassLoaderOfCopiedMethodEPNS_6ThreadEPNS_9ArtMethodE
_ZNK3art7OatFile13GetBssGcRootsEv
_ZThn16_N3art2gc9collector17ConcurrentCopyingD1Ev
_ZN3art15instrumentation15Instrumentation22ShouldDeoptimizeCallerEPNS_6ThreadEPPNS_9ArtMethodEm
_ZN3art9JavaVMExt12UpdateGlobalEPNS_6ThreadEPvNS_6ObjPtrINS_6mirror6ObjectEEE
_ZN3art16OatFileAssistant11OatFileInfo32CheckDisableCompactDexExperimentEv
_ZN3art12StackVisitor7SetVRegEPNS_9ArtMethodEtjNS_8VRegKindE
_ZN3art14ReferenceTableC1EPKcmm
artInvokeSuperTrampolineWithAccessCheck
_ZN3art7AppInfo15RegisterAppInfoERKNSt3__112basic_stringIcNS1_11char_traitsIcEENS1_9allocatorIcEEEERKNS1_6vectorIS7_NS5_IS7_EEEES9_S9_NS0_8CodeTypeE
_ZN3art5Locks19alloc_tracker_lock_E
_ZN3art16WellKnownClasses34dalvik_system_PathClassLoader_initE
_ZN3art2gc5space16BumpPointerSpaceC1ERKNSt3__112basic_stringIcNS3_11char_traitsIcEENS3_9allocatorIcEEEEPhSC_
_ZN3art16OatFileAssistantC2EPKcNS_14InstructionSetEPNS_18ClassLoaderContextEbbPNS_23OatFileAssistantContextEiii
_ZN3art8verifier12RegTypeCache13UninitializedERKNS0_7RegTypeEj
_ZN3art9ArtMethod11SetCodeItemEPKNS_3dex8CodeItemEb
_ZN3art8verifier12RegTypeCache10VisitRootsEPNS_11RootVisitorERKNS_8RootInfoE
_ZN3art35PLUGIN_INITIALIZATION_FUNCTION_NAMEE
_ZN3art2gc5space11RegionSpaceC2ERKNSt3__112basic_stringIcNS3_11char_traitsIcEENS3_9allocatorIcEEEEONS_6MemMapEb
_ZNSt3__16vectorIjNS_9allocatorIjEEE21__push_back_slow_pathIjEEvOT_
_ZTVN3art9ExecUtilsE
_ZN3art7metrics15ReportingConfig9FromFlagsEb
_ZNK3com7android3art9Classpath17getFirstComponentEv
_ZN3art15MemMapArenaPool13ReclaimMemoryEv
_ZTCNSt3__119basic_ostringstreamIcNS_11char_traitsIcEENS_9allocatorIcEEEE0_NS_13basic_ostreamIcS2_EE
_ZN3art6Thread25EnsureFlipFunctionStartedEPS0_NS0_13StateAndFlagsE
_ZN3art33GetRuntimeShutdownNativeInterfaceEv
_ZN3art7metrics19ReportDeviceMetricsEv
_ZNK3art6Thread14IsSystemDaemonEv
_ZN3art16ThreadPoolWorkerC1EPNS_10ThreadPoolERKNSt3__112basic_stringIcNS3_11char_traitsIcEENS3_9allocatorIcEEEEm
_ZN3art11ClassLinker34ResolveMethodExceptionHandlerTypesEPNS_9ArtMethodE
_ZNK3art7OatFile18IsBackedByVdexOnlyEv
artResolveTypeFromCode
_ZN3art2gc23ScopedGCCriticalSectionC1EPNS_6ThreadENS0_7GcCauseENS0_13CollectorTypeE
_ZN3art2gc5space16BumpPointerSpace19GetObjectsAllocatedEv
artSet16StaticFromCode
_ZN3art16WellKnownClasses42dalvik_system_DelegateLastClassLoader_initE
_ZN3art13ProfilingInfo6CreateEPNS_6ThreadEPNS_9ArtMethodE
_ZN3art14OatFileManager27ClearOnlyUseTrustedOatFilesEv
_ZN3art8verifier12RegTypeCache16primitive_count_E
_ZN3art23IsReturnTypeConvertibleENS_6ObjPtrINS_6mirror5ClassEEES3_
_ZN3art18RuntimeArgumentMap10NoSigChainE
_ZNK3art2gc10accounting11SpaceBitmapILm4096EE5BeginEv
_ZN3art2gc4Heap25WaitForGcToCompleteLockedENS0_7GcCauseEPNS_6ThreadE
_ZN3art2gc5space13DlMallocSpace4TrimEv
_ZN3art2gc10accounting22ModUnionTableCardCache4DumpERNSt3__113basic_ostreamIcNS3_11char_traitsIcEEEE
_ZN3art6HandleINS_6mirror14PrimitiveArrayIsEEE10GetFromGdbEv
_ZN3art9JavaVMExt20GetLibrarySearchPathEP7_JNIEnvP8_jobject
_ZNK3art12StackVisitor17GetNativePcOffsetEv
_ZN3art17InvokeWithJValuesIPNS_9ArtMethodEEENS_6JValueERKNS_33ScopedObjectAccessAlreadyRunnableEP8_jobjectT_PK6jvalue
_ZN3art10ThreadList8RegisterEPNS_6ThreadE
artSetByteInstanceFromCode
_ZN3art7ElfFile4OpenEPN9unix_file6FdFileEbbbPNSt3__112basic_stringIcNS4_11char_traitsIcEENS4_9allocatorIcEEEE
_ZN3art13ParsedOptions4ExitEi
_ZThn136_N3art2gc5space13DlMallocSpace19GetObjectsAllocatedEv
_ZN3art2gc5space13RosAllocSpace34AssertThreadLocalBuffersAreRevokedEPNS_6ThreadE
_ZN3art6mirror14PrimitiveArrayIiE3SetEii
_ZN3art16WellKnownClasses16java_lang_SystemE
_ZN3art9ArtMethod6InvokeEPNS_6ThreadEPjjPNS_6JValueEPKc
_ZN3art11annotations11GetNestHostENS_6HandleINS_6mirror5ClassEEE
_ZTVN3art12ProfileSaver26GetClassesAndMethodsHelper22GetClassLoadersVisitorE
_ZNK3art2gc10accounting17MemoryRangeBitmapILm8EE16BitIndexFromAddrEm
_ZN3art2gc5space11RegionSpace14ClearFromSpaceEPmS3_b
artJniMethodEnd
_ZNK3art16CumulativeLogger12DumpAveragesERNSt3__113basic_ostreamIcNS1_11char_traitsIcEEEE
_ZN3art6mirror8DexCache22VisitReflectiveTargetsEPNS_22ReflectiveValueVisitorE
_ZN3art9hiddenapi6detail15MemberSignatureC1ERKNS_13ClassAccessor6MethodE
_ZN3art15instrumentationlsERNSt3__113basic_ostreamIcNS1_11char_traitsIcEEEENS0_15Instrumentation20InstrumentationLevelE
_ZN3art3jit12JitCodeCache25RemoveMethodBeingCompiledEPNS_9ArtMethodENS_15CompilationKindE
_ZN3art11MonitorListD1Ev
_ZTVN3art6detail20CmdlineParseArgumentIjEE
_ZN3art2gc23ScopedGCCriticalSectionD1Ev
_ZN3art34ThrowUnsupportedOperationExceptionEv
_ZN3art6mirror14PrimitiveArrayIiE6MemcpyEiNS_6ObjPtrIS2_EEii
_ZN3art18ClassLoaderContext38kUnsupportedClassLoaderContextEncodingE
_ZN3art2gc9allocator8RosAlloc4FreeEPNS_6ThreadEPv
_ZN3art2gc9collector9IterationC2Ev
_ZN3art2gc5space10ImageSpace14ReleaseOatFileEv
_ZN3art9JNIEnvExt19CheckNoHeldMonitorsEv
_ZN3art6mirror14PrimitiveArrayIaE7GetDataEv
_ZN3art7Runtime21AppendToBootClassPathERKNSt3__112basic_stringIcNS1_11char_traitsIcEENS1_9allocatorIcEEEES9_RKNS1_6vectorINS1_10unique_ptrIKNS_7DexFileENS1_14default_deleteISD_EEEENS5_ISG_EEEE
_ZNK3art12StackVisitor15IsAccessibleFPREj
NterpGetShortyFromInvokePolymorphic
_ZN3art5arm6412Arm64Context6SetFPREjm
_ZN3art6mirror9Throwable13GetStackStateEv
artTestSuspendFromCode
_ZNK3art5Mutex4DumpERNSt3__113basic_ostreamIcNS1_11char_traitsIcEEEE
_ZN3art2gc10accounting11SpaceBitmapILm8EE10ClearRangeEPKNS_6mirror6ObjectES7_
_ZN3art2gc10accounting11SpaceBitmapILm4096EE14OffsetBitIndexEm
_ZN3art2gc10accounting11SpaceBitmapILm4096EE12OffsetToMaskEm
_ZN3art6Thread35ResetQuickAllocEntryPointsForThreadEv
_ZN3art9JNIEnvExt19DumpReferenceTablesERNSt3__113basic_ostreamIcNS1_11char_traitsIcEEEE
_ZN3art17ConditionVariableD2Ev
_ZNK3art11ElfFileImplINS_10ElfTypes32EE24FindDynamicSymbolAddressERKNSt3__112basic_stringIcNS3_11char_traitsIcEENS3_9allocatorIcEEEE
_ZN3art2gc9collector9MarkSweep9MarkRootsEPNS_6ThreadE
_ZN3art2gc5space16LargeObjectSpace28LogFragmentationAllocFailureERNSt3__113basic_ostreamIcNS3_11char_traitsIcEEEEm
_ZN3art18RuntimeArgumentMap7PluginsE
_ZN3art6ThreadC2Eb
_ZN3art6Thread28TearDownAlternateSignalStackEv
_ZNK3art25ArmInstructionSetFeatures6EqualsEPKNS_22InstructionSetFeaturesE
_ZN3art7riscv64lsERNSt3__113basic_ostreamIcNS1_11char_traitsIcEEEERKNS0_9XRegisterE
_ZN3art2gc9collector9SemiSpace5SweepEb
_ZN3art2gc5space10ImageSpace15BootImageLoader14LoadFromSystemEmbPNSt3__16vectorINS4_10unique_ptrIS2_NS4_14default_deleteIS2_EEEENS4_9allocatorIS9_EEEEPNS_6MemMapEPNS4_12basic_stringIcNS4_11char_traitsIcEENSA_IcEEEE
_ZN3art11interpreter16UnstartedRuntime36UnstartedClassGetDeclaredConstructorEPNS_6ThreadEPNS_11ShadowFrameEPNS_6JValueEm
_ZN3art3jit12JitCodeCache18GetProfiledMethodsERKNSt3__13setINS2_12basic_stringIcNS2_11char_traitsIcEENS2_9allocatorIcEEEENS2_4lessIS9_EENS7_IS9_EEEERNS2_6vectorINS_17ProfileMethodInfoENS7_ISH_EEEE
_ZN3art7Runtime22ClearCalleeSaveMethodsEv
_ZNK3com7android3art10ModuleInfo7getNameEv
_ZN3art12TimingLoggerD2Ev
_ZN3art11Transaction9ObjectLog14Log32BitsValueENS_12MemberOffsetEjb
_ZN3art11Transaction15InternStringLog10VisitRootsEPNS_11RootVisitorE
_ZN3art6mirror5Class12SetClassSizeEj
_ZN3art11interpreter20ExecuteSwitchImplCppILb1EEEvPNS0_17SwitchImplContextE
_ZN3art11interpreter16UnstartedRuntime16UnstartedMathTanEPNS_6ThreadEPNS_11ShadowFrameEPNS_6JValueEm
_ZN3art9JavaVMExtC1EPNS_7RuntimeERKNS_18RuntimeArgumentMapE
_ZN3art11Transaction5AbortERKNSt3__112basic_stringIcNS1_11char_traitsIcEENS1_9allocatorIcEEEE
_ZN3art8verifier12RegTypeCache15FromCat2ConstHiEib
_ZN3art7RuntimeD1Ev
_ZN3art9OatHeader6CreateENS_14InstructionSetEPKNS_22InstructionSetFeaturesEjPKNS_7SafeMapINSt3__112basic_stringIcNS6_11char_traitsIcEENS6_9allocatorIcEEEESC_NS6_4lessISC_EENSA_INS6_4pairIKSC_SC_EEEEEE
_ZN3artlsERNSt3__113basic_ostreamIcNS0_11char_traitsIcEEEENS_6Thread9DumpOrderE
_ZN3art2gc9collector9SemiSpace8IsMarkedEPNS_6mirror6ObjectE
_ZN3art8verifier21PcToRegisterLineTableC1ERNS_20ScopedArenaAllocatorE
_ZN3art6mirror5Class15IsInSamePackageENS_6ObjPtrIS1_EE
_ZThn296_N3art2gc5space16LargeObjectSpace8FreeListEPNS_6ThreadEmPPNS_6mirror6ObjectE
_ZN3art2gc5space13RosAllocSpaceC2EONS_6MemMapEmRKNSt3__112basic_stringIcNS5_11char_traitsIcEENS5_9allocatorIcEEEEPNS0_9allocator8RosAllocEPhSH_SH_mbmb
_ZNK3art11ElfFileImplINS_10ElfTypes32EE17FindSectionByNameERKNSt3__112basic_stringIcNS3_11char_traitsIcEENS3_9allocatorIcEEEE
_ZN3art9JavaVMExt10VisitRootsEPNS_11RootVisitorE
_ZN3art16WellKnownClasses62jdk_internal_math_FloatingDecimal_BinaryToASCIIBuffer_getCharsE
_ZN3art11ClassLinker22FixupStaticTrampolinesEPNS_6ThreadENS_6ObjPtrINS_6mirror5ClassEEE
_ZN3art6mirror16MethodHandleImpl6CreateEPNS_6ThreadEmNS0_12MethodHandle4KindENS_6HandleINS0_10MethodTypeEEE
_ZN3art24ThrowAbstractMethodErrorEjRKNS_7DexFileE
_ZN3art2gc9collector11MarkCompact23UpdateClassTableClassesEPNS_7RuntimeEb
_ZN3art2gc5space13RosAllocSpace6CreateERKNSt3__112basic_stringIcNS3_11char_traitsIcEENS3_9allocatorIcEEEEmmmbb
_ZN3art2gc5space11ZygoteSpace13SweepCallbackEmPPNS_6mirror6ObjectEPv
_ZN3art16RuntimeCallbacks16NextRuntimePhaseENS_20RuntimePhaseCallback12RuntimePhaseE
_ZN3art5Locks17SetClientCallbackEPFbvE
_ZN3art2gc9collector17ConcurrentCopying27IsNullOrMarkedHeapReferenceEPNS_6mirror13HeapReferenceINS3_6ObjectEEEb
_ZN3art2gc9collector9MarkSweep13PreCleanCardsEv
_ZNK3art9OatHeader33GetQuickToInterpreterBridgeOffsetEv
_ZN3art7OatFileD0Ev
_ZNK3art12StackVisitor18GetCurrentStackMapEv
_ZNK3art9ExecUtils11GetProcStatEi
_ZN3art11interpreter16UnstartedRuntime30UnstartedClassIsAnonymousClassEPNS_6ThreadEPNS_11ShadowFrameEPNS_6JValueEm
_ZN3art3jit12JitCodeCache18RemoveMethodLockedEPNS_9ArtMethodEb
_ZN3art11OatFileBase5SetupERKNSt3__16vectorIPKNS_7DexFileENS1_9allocatorIS5_EEEEPNS1_12basic_stringIcNS1_11char_traitsIcEENS6_IcEEEE
_ZN3art8verifier21PcToRegisterLineTable4InitEPNS0_16InstructionFlagsEjtRNS_20ScopedArenaAllocatorEPNS0_12RegTypeCacheEj
_ZN3art5MutexD1Ev
_ZN3art11ClassLinker26GetAllocatorForClassLoaderENS_6ObjPtrINS_6mirror11ClassLoaderEEE
_ZN3art2gc10accounting17MemoryRangeBitmapILm8EEC1EONS_6MemMapEmm
_ZN3art11interpreter16UnstartedRuntime32UnstartedJNIFieldGetNameInternalEPNS_6ThreadEPNS_9ArtMethodEPNS_6mirror6ObjectEPjPNS_6JValueE
_ZN3art6mirror9VarHandle26GetMethodTypeForAccessModeEPNS_6ThreadENS_6ObjPtrIS1_EENS1_10AccessModeE
_ZN3art7Runtime15DisableVerifierEv
_ZN3art6Thread21ObserveAsyncExceptionEv
_ZN3art3jit12JitCodeCache12DoCollectionEPNS_6ThreadEb
_ZNK3art11ClassLinker21IsQuickResolutionStubEPKv
_ZN3art10ThreadList9ResumeAllEv
_ZN3art2gc9collector11MarkCompact19UpdateNonMovingPageEPNS_6mirror6ObjectEPh
_ZN3art2gc9collector9MarkSweep17MarkHeapReferenceEPNS_6mirror13HeapReferenceINS3_6ObjectEEEb
_ZN3art30register_dalvik_system_VMDebugEP7_JNIEnv
_ZN3art9ArtMethod13GetInvokeTypeEv
_ZN3art3jit3Jit5StartEv
_ZN3art10ElfOatFile4LoadEibbbPNS_6MemMapEPNSt3__112basic_stringIcNS3_11char_traitsIcEENS3_9allocatorIcEEEE
_ZN3art23UnboxPrimitiveForResultENS_6ObjPtrINS_6mirror6ObjectEEENS0_INS1_5ClassEEEPNS_6JValueE
_ZN3art3Dbg23SetAllocTrackingEnabledEb
_ZN3art11ElfFileImplINS_10ElfTypes64EE4LoadEPN9unix_file6FdFileEbbPNS_6MemMapEPNSt3__112basic_stringIcNS8_11char_traitsIcEENS8_9allocatorIcEEEE
_ZN3art2gc10accounting11SpaceBitmapILm4096EEC2ERKNSt3__112basic_stringIcNS4_11char_traitsIcEENS4_9allocatorIcEEEEONS_6MemMapEPmmPKvm
_ZN3art6HandleINS_6mirror14PrimitiveArrayIlEEE10GetFromGdbEv
_ZN3art27LZ4_decompress_safe_checkedEPKcPciiPmPNSt3__112basic_stringIcNS4_11char_traitsIcEENS4_9allocatorIcEEEE
_ZN3art16RuntimeCallbacks18RemoveParkCallbackEPNS_12ParkCallbackE
_ZN3art11ClassLinker17InitFromBootImageEPNSt3__112basic_stringIcNS1_11char_traitsIcEENS1_9allocatorIcEEEE
_ZN3art13LockCountData31CheckAllMonitorsReleasedOrThrowEPNS_6ThreadE
_ZNK3art3jni19LocalReferenceTable12FreeCapacityEv
_ZNK3com7android4apex8ApexInfo11hasIsActiveEv
_ZN3art24ThrowWrappedLinkageErrorENS_6ObjPtrINS_6mirror5ClassEEEPKcz
_ZN3art2gc9allocator8RosAlloc9RevokeRunEPNS_6ThreadEmPNS2_3RunE
_ZN3art2gc5space13RosAllocSpace18InspectAllRosAllocEPFvPvS3_mS3_ES3_b
_ZTVNSt3__120__shared_ptr_emplaceIN3art6MemoryILm1EEENS_9allocatorIS3_EEEE
_ZN3art2gc4Heap19WaitForGcToCompleteENS0_7GcCauseEPNS_6ThreadE
_ZN3art16WellKnownClasses24java_nio_Buffer_capacityE
_ZN3art8verifier21PcToRegisterLineTableD2Ev
_ZN3art2gc4Heap22CollectGarbageInternalENS0_9collector6GcTypeENS0_7GcCauseEbj
_ZN3art11interpreter16UnstartedRuntime23UnstartedMemoryPeekByteEPNS_6ThreadEPNS_11ShadowFrameEPNS_6JValueEm
_ZN3art18RuntimeArgumentMap8JniTraceE
_ZN3art18UnloadNativeBridgeEv
_ZN3art8verifier14MethodVerifier19VerifyMethodAndDumpEPNS_6ThreadEPNS_31VariableIndentationOutputStreamEjPKNS_7DexFileENS_6HandleINS_6mirror8DexCacheEEENS9_INSA_11ClassLoaderEEERKNS_3dex8ClassDefEPKNSF_8CodeItemEjj
_ZNK3art8verifier12VerifierDeps13VerifyDexFileENS_6HandleINS_6mirror11ClassLoaderEEERKNS_7DexFileERKNS1_11DexFileDepsEPNS_6ThreadEPNSt3__112basic_stringIcNSE_11char_traitsIcEENSE_9allocatorIcEEEE
_ZTVN3art24HeapReflectiveSourceInfoE
_ZN3art9JavaVMExt16DecodeWeakGlobalEPNS_6ThreadEPv
artAllocStringFromCharsFromCodeRosAllocInstrumented
_ZN3art17ConditionVariable9TimedWaitEPNS_6ThreadEli
_ZN3art3jni19LocalReferenceTable18EnsureFreeCapacityEmPNSt3__112basic_stringIcNS2_11char_traitsIcEENS2_9allocatorIcEEEE
_ZN3com7android3art9CacheInfoC1ENSt3__16vectorINS1_16KeyValuePairListENS3_9allocatorIS5_EEEENS4_INS1_10ModuleInfoENS6_IS9_EEEENS4_INS1_14ModuleInfoListENS6_ISC_EEEENS4_INS1_9ClasspathENS6_ISF_EEEESH_NS4_INS1_22SystemServerComponentsENS6_ISI_EEEENS3_8optionalIbEE
_ZN3art7Barrier14SetCountLockedEPNS_6ThreadEi
_ZNK3art11ClassLinker28IsJniDlsymLookupCriticalStubEPKv
_ZN3art11ClassLinker31FindClassInSharedLibrariesAfterEPNS_6ThreadEPKcmNS_6HandleINS_6mirror11ClassLoaderEEEPNS_6ObjPtrINS6_5ClassEEE
_ZN3art6mirror8ClassExt9ClassSizeENS_11PointerSizeE
_ZTVN3art6detail20CmdlineParseArgumentINS_12LogVerbosityEEE
_ZN3art8verifier12ConflictType7DestroyEv
_ZNK3art11ElfFileImplINS_10ElfTypes32EE19CheckSectionsLinkedEPKhS4_
_ZN3art10OatDexFileC2EONS_15TypeLookupTableE
_ZNSt3__115basic_stringbufIcNS_11char_traitsIcEENS_9allocatorIcEEE8overflowEi
_ZNK3art11ElfFileImplINS_10ElfTypes64EE19GetHashSectionStartEv
_ZN3art6Thread6AttachEPKcbP8_jobject
_ZN3art11Transaction22VisitResolveStringLogsEPNS_11RootVisitorE
_ZN3art8verifier12VerifierDeps16AddAssignabilityERKNS_7DexFileERKNS_3dex8ClassDefENS_6ObjPtrINS_6mirror5ClassEEESC_
_ZN3art11ClassLinker33ResolveClassExceptionHandlerTypesENS_6HandleINS_6mirror5ClassEEE
_ZN3art24GetIndirectRefKindStringENS_15IndirectRefKindE
_ZN3art7Runtime19DetachCurrentThreadEb
_ZN3art9JavaVMExt6CreateEPNS_7RuntimeERKNS_18RuntimeArgumentMapEPNSt3__112basic_stringIcNS6_11char_traitsIcEENS6_9allocatorIcEEEE
_ZN3art9JNIEnvExtD1Ev
_ZNK3art8verifier20UnresolvedMergedType12IsArrayTypesEv
_ZTVNSt3__114basic_ifstreamIcNS_11char_traitsIcEEEE
_ZN3art29Riscv64InstructionSetFeatures12FromAssemblyEv
_ZN3art2gc9allocator8RosAlloc10InspectAllEPFvPvS3_mS3_ES3_
_ZTVN3art2gc9collector17ConcurrentCopying17ThreadFlipVisitorE
_ZNSt3__113basic_filebufIcNS_11char_traitsIcEEED2Ev
_ZNK3art2gc4Heap29FindContinuousSpaceFromObjectENS_6ObjPtrINS_6mirror6ObjectEEEb
_ZN3art2gc9collector11MarkCompact18FreeFromSpacePagesEmi
_ZN3art2gc4Heap13TraceHeapSizeEm
_ZN3art33ThrowIncompatibleClassChangeErrorENS_10InvokeTypeES0_PNS_9ArtMethodES2_
_ZN3art2gc5space11ZygoteSpaceC2ERKNSt3__112basic_stringIcNS3_11char_traitsIcEENS3_9allocatorIcEEEEONS_6MemMapEm
_ZN3art3jit16ScopedJitSuspendD1Ev
_ZN3art7metrics15MetricsReporterD2Ev
_ZN3art10OatDexFileD2Ev
_ZNK3art10InlineInfo4DumpEPNS_31VariableIndentationOutputStreamERKNS_8CodeInfoERKNS_8StackMapE
artAllocStringFromStringFromCodeRegionInstrumented
_ZN3art7AppInfo29GetPrimaryApkReferenceProfileEv
_ZN3art5Locks24jni_function_table_lock_E
_ZN3art11ClassLinker28ResolveMethodHandleForMethodEPNS_6ThreadERKNS_3dex16MethodHandleItemEPNS_9ArtMethodE
_ZN3art3jit12JitCodeCache8MoreCoreEPKvl
_ZN3art6Thread21QuickDeliverExceptionEb
_ZN3art11ElfFileImplINS_10ElfTypes32EE14GetSymbolTableEj
_ZN3art11interpreter16UnstartedRuntime18UnstartedMathFloorEPNS_6ThreadEPNS_11ShadowFrameEPNS_6JValueEm
_ZN3art18RuntimeArgumentMap17LockProfThresholdE
_ZN3art6Thread17pthread_key_self_E
_ZN3art11ClassLinker17IsBootClassLoaderENS_6ObjPtrINS_6mirror6ObjectEEE
artThrowStringBoundsFromCode
_ZN3art6mirror5Class13GetDescriptorEPNSt3__112basic_stringIcNS2_11char_traitsIcEENS2_9allocatorIcEEEE
_ZN3art11ElfFileImplINS_10ElfTypes64EE4OpenEPN9unix_file6FdFileEbbbPNSt3__112basic_stringIcNS6_11char_traitsIcEENS6_9allocatorIcEEEE
_ZN3art2gc4Heap16VerifyObjectBodyENS_6ObjPtrINS_6mirror6ObjectEEE
_ZN3art2gc5space13RosAllocSpace4WalkEPFvPvS3_mS3_ES3_
_ZN3art2gc9collector11MarkCompact13ZeropageIoctlEPvbb
_ZN3art2gc9collector9MarkSweep10MarkObjectEPNS_6mirror6ObjectE
_ZN3art6mirror9VarHandle31GetMethodTypeMatchForAccessModeENS1_10AccessModeENS_6ObjPtrINS0_10MethodTypeEEE
_ZTVN3art6detail20CmdlineParseArgumentINS_9JniIdTypeEEE
_ZN3com7android3art22SystemServerComponents4readEPN8tinyxml210XMLElementE
_ZNK3art9OatHeader29GetQuickImtConflictTrampolineEv
_ZN3art2gc10accounting17MemoryRangeBitmapILm16EE13SetBitmapSizeEm
_ZN3art15instrumentation15Instrumentation26SetEntrypointsInstrumentedEb
_ZN3art9JavaVMExt15IsBadJniVersionEi
_ZN3art6mirror14PrimitiveArrayIaE6MemcpyEiNS_6ObjPtrIS2_EEii
_ZN3art18RuntimeArgumentMap7UseTLABE
_ZN3art11ClassLinker14DoLookupStringENS_3dex11StringIndexENS_6ObjPtrINS_6mirror8DexCacheEEE
_ZN3art3jit12JitCodeCache10VisitRootsEPNS_11RootVisitorE
artAllocStringFromBytesFromCodeBumpPointer
_ZN3art11ClassLinker28InsertDexFileInToClassLoaderENS_6ObjPtrINS_6mirror6ObjectEEENS1_INS2_11ClassLoaderEEE
_ZN3art2gc18ReferenceProcessor22DelayReferenceReferentENS_6ObjPtrINS_6mirror5ClassEEENS2_INS3_9ReferenceEEEPNS0_9collector16GarbageCollectorE
_ZN3art11MonitorList15DeflateMonitorsEv
_ZN3art18RuntimeArgumentMap20BootClassPathDexListE
_ZTVN3art13VariantMapKeyINS_6MemoryILm1024EEEEE
art_l2d
artResolveStringFromCode
_ZN3art16WellKnownClasses22java_lang_Byte_valueOfE
_ZNK3art11ElfFileImplINS_10ElfTypes32EE12GetSymbolNumER10elf32_shdr
_ZNK3art2gc9collector9MarkSweep14GetThreadCountEb
_ZN3art6HandleINS_6mirror11ConstructorEE13ObjectFromGdbEv
artSet32StaticFromCompiledCode
_ZN3art13fault_managerE
_ZN3art3jni12JniIdManager13GetGenericMapINS_8ArtFieldEEERNSt3__16vectorIPT_NS4_9allocatorIS7_EEEEv
_ZN3art18RuntimeArgumentMap9StackSizeE
_ZTVN3art5TraceE
art_l2f
_ZN3art2gc5space13FreeListSpaceC2ERKNSt3__112basic_stringIcNS3_11char_traitsIcEENS3_9allocatorIcEEEEONS_6MemMapEPhSE_
_ZN3art26MonitorObjectsStackVisitor17VisitLockedObjectENS_6ObjPtrINS_6mirror6ObjectEEEPv
_ZNK3art11ClassLinker20IsJniDlsymLookupStubEPKv
_ZN3art6mirror8DexCache11SetLocationENS_6ObjPtrINS0_6StringEEE
_ZNK3art10ThreadList22SweepInterpreterCachesEPNS_15IsMarkedVisitorE
_ZN3art9hiddenapi6detail15MemberSignature23NotifyHiddenApiListenerENS0_12AccessMethodE
_ZTVN3art6detail20CmdlineParseArgumentINS_4UnitEEE
_ZTVN3art14AotClassLinkerE
_ZTVN3art11MemMapArenaE
_ZN3art2gc5space16BumpPointerSpace24RevokeThreadLocalBuffersEPNS_6ThreadE
_ZN3art2gc5space13FreeListSpace4FreeEPNS_6ThreadEPNS_6mirror6ObjectE
_ZNK3art9OatHeader34GetQuickResolutionTrampolineOffsetEv
artLmul
_ZN3art2gc4Heap21DumpGcPerformanceInfoERNSt3__113basic_ostreamIcNS2_11char_traitsIcEEEE
_ZN3art11interpreter16UnstartedRuntime30UnstartedStringGetCharsNoCheckEPNS_6ThreadEPNS_11ShadowFrameEPNS_6JValueEm
artAllocStringObjectDlMalloc
_ZN3art2gc5space11ZygoteSpace14AllocationSizeEPNS_6mirror6ObjectEPm
_ZN3art7Runtime12CallExitHookEi
_ZN3art11ClassLinker35InitializeDefaultInterfaceRecursiveEPNS_6ThreadENS_6HandleINS_6mirror5ClassEEEbb
_ZN3art2gc18ReferenceProcessor20BroadcastForSlowPathEPNS_6ThreadE
_ZN3art22ScopedExceptionStorage20SuppressOldExceptionEPKc
_ZN3art9hiddenapi24ShouldDenyAccessToMemberINS_9ArtMethodEEEbPT_RKNSt3__18functionIFNS0_13AccessContextEvEEENS0_12AccessMethodE
_ZN3art35ThrowArrayIndexOutOfBoundsExceptionEii
_ZN3art9JNIEnvExt13GetEnvHandlerEPNS_9JavaVMExtEPPvi
_ZN3art11annotations17GetEnclosingClassENS_6HandleINS_6mirror5ClassEEE
_ZNK3art2gc10accounting11SpaceBitmapILm4096EE13DumpMemAroundEPNS_6mirror6ObjectE
_ZN3art18RuntimeArgumentMap15MethodTraceFileE
_ZN3art29ThrowIllegalArgumentExceptionEPKc
_ZN3art2gc4Heap18AdjustSampleOffsetEm
_ZN3art6HandleINS_6mirror11ClassLoaderEE13ObjectFromGdbEv
_ZNK3art2gc5space13FreeListSpace17GetBeginEndAtomicEv
_ZN3art11InternTable22BroadcastForNewInternsEv
_ZN3art3jit3Jit13JitAtFirstUseEv
_ZN3art18RuntimeArgumentMap8HookExitE
_ZNK3com7android4apex12ApexInfoList11hasApexInfoEv
_ZN3art7Runtime21VisitTransactionRootsEPNS_11RootVisitorE
_ZTVZN3art7Monitor4LockILNS_10LockReasonE0EEEvPNS_6ThreadEE17CollectStackTrace
_ZN3art16WellKnownClasses33java_lang_Throwable_detailMessageE
_ZN3art2gc9allocatorlsERNSt3__113basic_ostreamIcNS2_11char_traitsIcEEEENS1_8RosAlloc11PageMapKindE
_ZN3art2gc10accounting27ModUnionTableReferenceCache23UpdateAndMarkReferencesEPNS_17MarkObjectVisitorE
_ZN3art6HandleINS_6mirror14PrimitiveArrayItEEE13ObjectFromGdbEv
_ZN3art7Runtime52GetPreAllocatedOutOfMemoryErrorWhenThrowingExceptionEv
_ZN3art8verifier12RegisterLine23MarkUninitRefsAsInvalidEPNS0_14MethodVerifierERKNS0_7RegTypeE
NterpDoPackedSwitch
_ZN3art11MonitorPool21ReleaseMonitorsToPoolEPNS_6ThreadEPNSt3__14listIPNS_7MonitorENS3_9allocatorIS6_EEEE
_ZN3art29ThrowIllegalAccessErrorMethodENS_6ObjPtrINS_6mirror5ClassEEEPNS_9ArtMethodE
_ZN3art2gc5space11RegionSpace13TraceHeapSizeEv
_ZN3art6mirror6String15FillBytesLatin1ENS_6HandleINS0_14PrimitiveArrayIaEEEEi
_ZN3art16OatFileAssistant11OatFileInfo8FilenameEv
_ZN3art6Thread25is_sensitive_thread_hook_E
artFindNativeMethodRunnable
artResolveMethodTypeFromCode
_ZN3art11ClassLinker27ResolveMethodHandleForFieldEPNS_6ThreadERKNS_3dex16MethodHandleItemEPNS_9ArtMethodE
_ZN3art10ClassTable6InsertENS_6ObjPtrINS_6mirror5ClassEEE
_ZN3art11annotations30HasDeadReferenceSafeAnnotationERKNS_7DexFileERKNS_3dex8ClassDefE
_ZNK3art11ElfFileImplINS_10ElfTypes64EE19GetSectionHeaderNumEv
_ZN3art6HandleINS_6mirror6ObjectEE13ObjectFromGdbEv
_ZN3art7Monitor4InitEjj
_ZN3art6Thread21jit_sensitive_thread_E
_ZNK3art11ImageHeader14GetPointerSizeEv
_ZN3art3jit15JitMemoryRegion25IncreaseCodeCacheCapacityEv
_ZNK3art2gc10accounting11SpaceBitmapILm4096EE7IsValidEv
_ZN3art6mirror5Class17GetPrimitiveClassENS_6ObjPtrINS0_6StringEEE
_ZN3art5Trace4StopEv
_ZN3art6mirror8DexCache32ShouldAllocateFullArrayAtStartupEv
_ZN3art2gc10accounting17MemoryRangeBitmapILm1024EE3SetEm
_ZN3art2gc5space11MallocSpace13bitmap_index_E
artSetByteStaticFromCode
_ZN3art22ClassHierarchyAnalysis24RemoveAllDependenciesForEPNS_9ArtMethodE
_ZNK3art2gc4Heap21GetBytesAllocatedEverEv
_ZN3art3jit12JitCodeCache36WaitForPotentialCollectionToCompleteEPNS_6ThreadE
_ZN3art6mirror9VarHandle32GetAccessModeTemplateByIntrinsicENS_10IntrinsicsE
_ZN3art2gc5space10ImageSpace15BootImageLayout20MatchNamedComponentsENS_8ArrayRefIKNSt3__112basic_stringIcNS5_11char_traitsIcEENS5_9allocatorIcEEEEEEPNS5_6vectorINS3_22NamedComponentLocationENS9_ISF_EEEEPSB_
_ZN3art3jit15JitMemoryRegion17SetFootprintLimitEm
_ZN3art25register_java_lang_StringEP7_JNIEnv
_ZN3art16WellKnownClasses37dalvik_system_VMRuntime_hiddenApiUsedE
_ZN3art10ThreadList20FindThreadByThreadIdEj
_ZN3art22ClassHierarchyAnalysis28InitSingleImplementationFlagENS_6HandleINS_6mirror5ClassEEEPNS_9ArtMethodENS_11PointerSizeE
_ZN3art11ElfFileImplINS_10ElfTypes32EE6SetMapEPN9unix_file6FdFileEONS_6MemMapEPNSt3__112basic_stringIcNS8_11char_traitsIcEENS8_9allocatorIcEEEE
_ZNK3art11ElfFileImplINS_10ElfTypes64EE16GetSectionHeaderEj
_ZN3art2gc17GCCriticalSection4ExitEPKc
_ZNK3art7Runtime18GetMainThreadGroupEv
_ZN3art26GetCheckJniInvokeInterfaceEv
_ZN3art10ThreadList4DumpERNSt3__113basic_ostreamIcNS1_11char_traitsIcEEEEb
_ZN3art11ClassLinker20CanWeInitializeClassENS_6ObjPtrINS_6mirror5ClassEEEbb
_ZNK3art9OatHeader18GetStoreValueByKeyEPKc
_ZN3art18ClassLoaderContextC2Eb
_ZTVN3art2gc9collector9SemiSpaceE
_ZN3art11interpreter16UnstartedRuntime3JniEPNS_6ThreadEPNS_9ArtMethodEPNS_6mirror6ObjectEPjPNS_6JValueE
_ZN3art6mirror9VarHandle24GetAccessModeByIntrinsicENS_10IntrinsicsE
_ZN3art5Trace17UseThreadCpuClockEv
CpuFeatures_StringView_TrimWhitespace
_ZNK3art10ClassTable16NumZygoteClassesENS_6ObjPtrINS_6mirror11ClassLoaderEEE
_ZN3art16WellKnownClasses30java_nio_DirectByteBuffer_initE
_ZN3art17ConditionVariable4WaitEPNS_6ThreadE
_ZN3art2gc10accounting17MemoryRangeBitmapILm8EE6CreateERKNSt3__112basic_stringIcNS4_11char_traitsIcEENS4_9allocatorIcEEEEmm
_ZN3art16OatFileAssistant6CreateERKNSt3__112basic_stringIcNS1_11char_traitsIcEENS1_9allocatorIcEEEES9_RKNS1_8optionalIS7_EEbbPNS_23OatFileAssistantContextEPNS1_10unique_ptrINS_18ClassLoaderContextENS1_14default_deleteISH_EEEEPS7_
_ZN3art7Runtime19AddSystemWeakHolderEPNS_2gc24AbstractSystemWeakHolderE
_ZTVN3art8verifier20UnresolvedMergedTypeE
_ZN3com7android3art11printIndentEv
_ZNK3art7Runtime19GetStartupCompletedEv
_ZN3art11interpreter29DoVarHandleCompareAndExchangeEPNS_6ThreadERNS_11ShadowFrameEPKNS_11InstructionEtPNS_6JValueE
_ZN3art13ProfilingInfo13AddInvokeInfoEjPNS_6mirror5ClassE
_ZNK3art11Transaction15GetAbortMessageEv
_ZTVN3art8verifier18PreciseConstLoTypeE
_ZN3art12StackVisitor9WalkStackILNS0_16CountTransitionsE0EEEvb
_ZNK3art11ElfFileImplINS_10ElfTypes64EE13GetHashBucketEmPb
_ZTVN3art8verifier9FloatTypeE
_ZN3art3jni19LocalReferenceTable4TrimEv
_ZN3art21IndexBssMappingLookup12GetBssOffsetEPKNS_19LengthPrefixedArrayINS_20IndexBssMappingEntryEEEjjm
_ZNK3art8UContext14DumpRegister64ERNSt3__113basic_ostreamIcNS1_11char_traitsIcEEEEPKcm
_ZN3art6Thread11PopVerifierEPNS_8verifier14MethodVerifierE
CpuFeatures_ReadFile
_ZNSt3__115basic_stringbufIcNS_11char_traitsIcEENS_9allocatorIcEEE7seekoffExNS_8ios_base7seekdirEj
_ZN3art6mirror14PrimitiveArrayIsE3GetEi
_ZNK3art7OatFile20GetCompilationReasonEv
_ZN3art10OatDexFileC1EPKNS_7OatFileERKNSt3__112basic_stringIcNS4_11char_traitsIcEENS4_9allocatorIcEEEESC_jPKhSE_PKNS_19LengthPrefixedArrayINS_20IndexBssMappingEntryEEESJ_SJ_SJ_SJ_PKjPKNS_17DexLayoutSectionsE
_ZN3art7AppInfo20HasRegisteredAppInfoEv
_ZN3art7Runtime21ScopedThreadPoolUsageD1Ev
_ZN3art2gc4Heap17SetSpaceAsDefaultEPNS0_5space15ContinuousSpaceE
artSet8InstanceFromCode
_ZN3art2gc4Heap20DisableGCForShutdownEv
_ZN3art2gc5space26ContinuousMemMapAllocSpace13UnBindBitmapsEv
_ZN3art2gc5space13RosAllocSpace32InspectAllRosAllocWithSuspendAllEPFvPvS3_mS3_ES3_b
_ZN3art6HandleINS_6mirror5FieldEE13ObjectFromGdbEv
_ZTVN3art3jit15MarkCodeClosureE
_ZN3art16OatFileAssistant14OdexFileStatusEv
_ZN3art12TimingLoggerC2EPKcbbNS0_10TimingKindE
_ZN3art16WellKnownClasses25java_lang_ThreadGroup_addE
_ZN3art2gc9collector17ConcurrentCopyingD0Ev
_ZNK3art31ReflectiveHandleScopeSourceInfo8DescribeERNSt3__113basic_ostreamIcNS1_11char_traitsIcEEEE
_ZN3art18GcVisitedArenaPool10AllocArenaEmb
_ZN3art2gc4Heap21ThrowOutOfMemoryErrorEPNS_6ThreadEmNS0_13AllocatorTypeE
_ZN3art15instrumentation15Instrumentation27GetDeoptimizationMethodTypeEPNS_9ArtMethodE
_ZN3art11interpreter34DoVarHandleGetAndBitwiseXorAcquireEPNS_6ThreadERNS_11ShadowFrameEPKNS_11InstructionEtPNS_6JValueE
_ZNK3art7OatFile13GetBssMethodsEv
_ZGVZN3art6MemoryILm1024EE4NameEvE3str
StackLineReader_NextLine
_ZN3art15CompatFrameworkD1Ev
_ZTVN3art2gc9collector9MarkSweep12CardScanTaskE
_ZN3art2gc4Heap4TrimEPNS_6ThreadE
_ZN3art8verifier12RegisterLine20CheckUnaryOpFromWideEPNS0_14MethodVerifierEPKNS_11InstructionERKNS0_7RegTypeES9_S9_
_ZN3art11ClassLinker19LookupResolvedFieldEjNS_6ObjPtrINS_6mirror8DexCacheEEENS1_INS2_11ClassLoaderEEEb
_ZThn16_N3art2gc9collector9SemiSpace10MarkObjectEPNS_6mirror6ObjectE
_ZTVNSt3__110__function6__funcIZN3art9hiddenapi6detail11GetDexFlagsINS2_9ArtMethodEEEjPT_EUlRKNS2_13ClassAccessor6MethodEE0_NS_9allocatorISD_EEFvSC_EEE
_ZNK3art7Runtime20GetSystemClassLoaderEv
_ZN3art2gc5space11RegionSpace36PoisonDeadObjectsInUnevacuatedRegionEPNS2_6RegionE
_ZN3art9JavaVMExt12HandleGetEnvEPPvi
_ZN3art16OatFileAssistant11OatFileInfo5ResetEv
_ZN3art10ThreadPoolC2EPKcmbm
_ZNK3art27Arm64InstructionSetFeatures18IntersectWithHwcapEv
_ZTVNSt3__115basic_stringbufIcNS_11char_traitsIcEENS_9allocatorIcEEEE
_ZN3art10ObjectLockINS_6mirror5ClassEEC1EPNS_6ThreadENS_6HandleIS2_EE
_ZN3art2gc4Heap14SwapSemiSpacesEv
_ZN3art11ImageHeader23RelocateImageReferencesEl
_ZN3art6mirror18EmulatedStackFrame28CreateFromShadowFrameAndArgsEPNS_6ThreadENS_6HandleINS0_10MethodTypeEEES6_RKNS_11ShadowFrameEPKNS_19InstructionOperandsE
_ZTVN3art2gc5space11MemMapSpaceE
_ZTVN3art5MutexE
_ZN3art11ClassLinkerD0Ev
artDeoptimizeFromCompiledCode
_ZNKSt3__115basic_stringbufIcNS_11char_traitsIcEENS_9allocatorIcEEE3strEv
_ZN3art2gclsERNSt3__113basic_ostreamIcNS1_11char_traitsIcEEEERKNS0_7GcCauseE
_ZNSt3__16vectorINS_12basic_stringIcNS_11char_traitsIcEENS_9allocatorIcEEEENS4_IS6_EEE24__emplace_back_slow_pathIJRKPKcEEEvDpOT_
_ZN3art14AotClassLinker24SetEnablePublicSdkChecksEb
_ZN3art16CumulativeLogger7AddPairEPKcm
_ZN3art17FindFieldFromCodeILNS_13FindFieldTypeE22EEEPNS_8ArtFieldEjPNS_9ArtMethodEPNS_6ThreadEb
_ZNK3art11ImageHeader12VisitObjectsEPNS_13ObjectVisitorEPhNS_11PointerSizeE
_ZN3art6mirror5Class17GetDeclaredFieldsEPNS_6ThreadEbb
_ZN3art3jit3Jit19PostForkChildActionEbb
_ZN3art3jni12JniIdManager9GetNextIdINS_8ArtFieldEEEmNS_9JniIdTypeE
_ZN3art3jit3Jit23NewTypeLoadedIfUsingJitEPNS_6mirror5ClassE
_ZN3art6mirror12MethodHandle10InitializeEmNS1_4KindENS_6HandleINS0_10MethodTypeEEE
_ZN3art5Trace20MeasureClockOverheadEv
_ZN3art18ClassLoaderContextC2Ev
_ZN3art2gc9allocator8RosAllocD1Ev
_ZN3art23NativeDebugInfoPostForkEv
_ZN3art41register_java_lang_ref_FinalizerReferenceEP7_JNIEnv
_ZN3art11MonitorPoolC2Ev
_ZN3art15instrumentation15Instrumentation30UpdateEntrypointsForDebuggableEv
_ZN3art11interpreter6DoCallILb0EEEbPNS_9ArtMethodEPNS_6ThreadERNS_11ShadowFrameEPKNS_11InstructionEtbPNS_6JValueE
artAllocObjectFromCodeInitializedRegionInstrumented
_ZN3art14AotClassLinkerD1Ev
_ZN3art5Locks40RemoveFromExpectedMutexesOnWeakRefAccessEPNS_9BaseMutexEb
_ZN3art2gc5space13RosAllocSpaceD1Ev
artAllocStringFromBytesFromCodeRegion
CpuFeatures_GetHardwareCapabilities
_ZN3art2gc4Heap16ClampGrowthLimitEv
_ZN3art8verifier12RegTypeCache24FromUnresolvedSuperClassERKNS0_7RegTypeE
_ZN3art2gc5space26ContinuousMemMapAllocSpace11SwapBitmapsEv
_ZN3art2gc9collector9MarkSweep12VerifyIsLiveEPKNS_6mirror6ObjectE
_ZN3art6HandleINS_6mirror9ReferenceEE13ObjectFromGdbEv
_ZN3art6HandleINS_6mirror11ObjectArrayINS1_17StackTraceElementEEEE13ObjectFromGdbEv
_ZN3art22InitializeNativeBridgeEP7_JNIEnvPKc
_ZN3art9OatHeader33SetQuickToInterpreterBridgeOffsetEj
_ZN3art11ElfFileImplINS_10ElfTypes32EEC2EPN9unix_file6FdFileEbb
_ZN3art6Thread30ReleaseLongJumpContextInternalEv
_ZN3art2gc5space13DlMallocSpace6CreateERKNSt3__112basic_stringIcNS3_11char_traitsIcEENS3_9allocatorIcEEEEmmmb
_ZN3art11Transaction8RollbackEv
_ZN3art15InitEntryPointsEPNS_14JniEntryPointsEPNS_16QuickEntryPointsEb
_ZN3art3jit12JitCodeCache25InvalidateCompiledCodeForEPNS_9ArtMethodEPKNS_20OatQuickMethodHeaderE
_ZN3art16WellKnownClasses41org_apache_harmony_dalvik_ddmc_Chunk_typeE
_ZN3com7android3art9ClasspathC2ENSt3__16vectorINS1_9ComponentENS3_9allocatorIS5_EEEE
_ZTVN3art17ReaderWriterMutexE
_ZNK3art9OatHeader28GetQuickGenericJniTrampolineEv
_ZN3art6HandleINS_6mirror11ObjectArrayINS1_6ObjectEEEE13ObjectFromGdbEv
_ZN3art8verifier12ConflictType14CreateInstanceENS_6ObjPtrINS_6mirror5ClassEEERKNSt3__117basic_string_viewIcNS6_11char_traitsIcEEEEt
_ZN3art6mirror5Class20GetInterfaceTypeListEv
_ZN3art2gc5space19LargeObjectMapSpace14AllocationSizeEPNS_6mirror6ObjectEPm
NterpGetMethod
_ZN3art5Locks42reference_queue_finalizer_references_lock_E
_ZN3art2gc10accounting6BitmapD1Ev
_ZN3art11interpreter20DoMethodHandleInvokeEPNS_6ThreadERNS_11ShadowFrameEPKNS_11InstructionEtPNS_6JValueE
_ZN3art11interpreter16UnstartedRuntime55UnstartedJNIJdkUnsafeGetArrayIndexScaleForComponentTypeEPNS_6ThreadEPNS_9ArtMethodEPNS_6mirror6ObjectEPjPNS_6JValueE
_ZN3art7metrics15MetricsReporter12ReloadConfigERKNS0_15ReportingConfigE
_ZN3art8CodeInfo16CollectSizeStatsEPKhRNS_5StatsE
artAllocStringFromBytesFromCodeDlMallocInstrumented
_ZN3art11ClassLinker19CleanupClassLoadersEv
_ZN3art2gc5space10ImageSpace26CheckAndCountBCPComponentsENSt3__117basic_string_viewIcNS3_11char_traitsIcEEEENS_8ArrayRefIKNS3_12basic_stringIcS6_NS3_9allocatorIcEEEEEEPSC_
_ZN3art6mirror8ClassExt5AllocEPNS_6ThreadE
_ZN3art18RuntimeArgumentMap22DumpRegionInfoBeforeGCE
_ZN3art10ThreadList13RunCheckpointEPNS_7ClosureES2_
_ZN3art17FindFieldFromCodeILNS_13FindFieldTypeE38EEEPNS_8ArtFieldEjPNS_9ArtMethodEPNS_6ThreadEb
_ZNK3art2gc9collector16GarbageCollector26GetEstimatedMeanThroughputEv
_ZN3art11interpreter20DoVarHandleGetAndSetEPNS_6ThreadERNS_11ShadowFrameEPKNS_11InstructionEtPNS_6JValueE
_ZN3art9JNIEnvExt6CreateEPNS_6ThreadEPNS_9JavaVMExtEPNSt3__112basic_stringIcNS5_11char_traitsIcEENS5_9allocatorIcEEEE
_ZN3art7metrics6statsd11stats_writeEilii
_ZN3art12TimingLogger6VerifyEv
_ZN3art16ThrowIOExceptionEPKcz
_ZN3art2gc5space11RegionSpace19DumpRegionForObjectERNSt3__113basic_ostreamIcNS3_11char_traitsIcEEEEPNS_6mirror6ObjectE
_ZN3art7ElfFileC2EPNS_11ElfFileImplINS_10ElfTypes64EEE
_ZN3art2gc5space11RegionSpace6Region20GetUseGenerationalCCEv
_ZNK3art12StackVisitor34GetVRegPairFromDebuggerShadowFrameEtNS_8VRegKindES1_Pm
artAllocObjectFromCodeResolvedRegion
_ZN3art7BarrierD0Ev
_ZTVN3art11ClassLinker30FindVirtualMethodHolderVisitorE
_ZNK3art14OatFileManager38FindOpenedOatFileFromOatLocationLockedERKNSt3__112basic_stringIcNS1_11char_traitsIcEENS1_9allocatorIcEEEE
_ZN3art8verifier12RegisterLine37MarkAllRegistersAsConflictsExceptWideEPNS0_14MethodVerifierEj
_ZN3art6mirror6String6InternEv
_ZN3art24register_sun_misc_UnsafeEP7_JNIEnv
_ZN3art18RuntimeArgumentMap18FinalizerTimeoutMsE
_ZN3art6Thread9DumpStateERNSt3__113basic_ostreamIcNS1_11char_traitsIcEEEEPKS0_i
_ZN3art8verifier11IntegerType14CreateInstanceENS_6ObjPtrINS_6mirror5ClassEEERKNSt3__117basic_string_viewIcNS6_11char_traitsIcEEEEt
_ZN3art15CompatFramework9LogChangeEm
_ZN3art2gc9collector17ConcurrentCopying10SweepArrayEPNS0_10accounting11AtomicStackINS_6mirror6ObjectEEEb
_ZN3art11interpreter16UnstartedRuntime16UnstartedMathCosEPNS_6ThreadEPNS_11ShadowFrameEPNS_6JValueEm
_ZN3art6mirror14PrimitiveArrayItE15AllocateAndFillEPNS_6ThreadEPKtm
_ZN3art16OatFileAssistant11OatFileInfo7GetFileEv
_ZNK3art3jni19LocalReferenceTable4DumpERNSt3__113basic_ostreamIcNS2_11char_traitsIcEEEE
_ZN3art13SignalCatcher13HandleSigUsr1Ev
_ZNK3com7android3art9Component7hasSizeEv
_ZN3art17FindFieldFromCodeILNS_13FindFieldTypeE41EEEPNS_8ArtFieldEjPNS_9ArtMethodEPNS_6ThreadEb
_ZNK3art2gc4Heap22VisitAllocationRecordsEPNS_11RootVisitorE
_ZN3art11ClassLinker26AllocAndInitializeDexCacheEPNS_6ThreadERKNS_7DexFileENS_6ObjPtrINS_6mirror11ClassLoaderEEE
_ZN3art2gc9collector16GarbageCollector11ScopedPauseD2Ev
_ZN3art2gc9collector11MarkCompact10MarkObjectEPNS_6mirror6ObjectE
_ZN3art2gc5space10ImageSpace21GetNumberOfComponentsENS_8ArrayRefIKPS2_EE
_ZN3art2gc9collector9MarkSweep17SweepLargeObjectsEb
_ZN3art15instrumentation15Instrumentation16GetCodeForInvokeEPNS_9ArtMethodE
_ZN3art16WellKnownClasses42dalvik_system_DexPathList__Element_dexFileE
_ZN3artlsERNSt3__113basic_ostreamIcNS0_11char_traitsIcEEEERKNS_17ReaderWriterMutexE
_ZTVN3art2gc9collector17ConcurrentCopying36RevokeThreadLocalMarkStackCheckpointE
_ZTVN3art13VariantMapKeyINS_9hiddenapi17EnforcementPolicyEEE
_ZN3art5Mutex27ExclusiveLockUncontendedForEPNS_6ThreadE
_ZN3art6mirror6Method19CreateFromArtMethodILNS_11PointerSizeE8EEENS_6ObjPtrIS1_EEPNS_6ThreadEPNS_9ArtMethodE
_ZN3art7Runtime20RecordWriteFieldCharEPNS_6mirror6ObjectENS_12MemberOffsetEtb
_ZN3art6mirror8ClassExt22SetErroneousStateErrorENS_6ObjPtrINS0_9ThrowableEEE
_ZN3art8verifier12RegTypeCache9AddStringERKNSt3__117basic_string_viewIcNS2_11char_traitsIcEEEE
_ZN3art6mirror5Class20GetAccessFlagsDCheckILNS_17VerifyObjectFlagsE4EEEvv
_ZN3art14OatFileManager25SetOnlyUseTrustedOatFilesEv
_ZTVN3art13VariantMapKeyINSt3__16vectorINS1_12basic_stringIcNS1_11char_traitsIcEENS1_9allocatorIcEEEENS6_IS8_EEEEEE
artInvokeVirtualTrampolineWithAccessCheck
_ZN3art16ScopedSuspendAllD2Ev
_ZNK3art8verifier12RegisterLine22CheckConstructorReturnEPNS0_14MethodVerifierE
_ZNK3com7android3art9CacheInfo16getArtModuleInfoEv
_ZN3art15instrumentation15Instrumentation21InstrumentThreadStackEPNS_6ThreadEb
_ZN3art9JNIEnvExt18SetCheckJniEnabledEb
_ZN3art17ConditionVariableC1EPKcRNS_5MutexE
_ZN3art13LockCountData20RemoveMonitorOrThrowEPNS_6ThreadEPKNS_6mirror6ObjectE
_ZN3art14OatFileManager42WaitForBackgroundVerificationTasksToFinishEv
_ZN3art23ThrowClassCastExceptionENS_6ObjPtrINS_6mirror5ClassEEES3_
_ZN3art2gc9collector9MarkSweep16ProcessMarkStackEb
_ZN3art11interpreter16UnstartedRuntime26UnstartedStringToCharArrayEPNS_6ThreadEPNS_11ShadowFrameEPNS_6JValueEm
_ZN3art3jit3Jit13BootCompletedEv
_ZTVN3art2gc10accounting22EmptyMarkObjectVisitorE
_ZN3art7metrics15MetricsReporter6CreateERKNS0_15ReportingConfigEPNS_7RuntimeE
_ZNK3art11ElfFileImplINS_10ElfTypes32EE4SizeEv
_ZNK3art11ElfFileImplINS_10ElfTypes32EE22FindProgamHeaderByTypeEj
_ZN3art2gc9collector11MarkCompact17KernelPreparationEv
_ZNK3art2gc5space19LargeObjectMapSpace17GetBeginEndAtomicEv
_ZN3art3jit3Jit23MaybeEnqueueCompilationEPNS_9ArtMethodEPNS_6ThreadE
_ZN3art8verifier12RegTypeCacheD2Ev
_ZN3art16RuntimeCallbacks20RegisterNativeMethodEPNS_9ArtMethodEPKvPPv
_ZN3art2gc9collector17ConcurrentCopying26RevokeThreadLocalMarkStackEPNS_6ThreadE
_ZN3art18RuntimeArgumentMap25UseProfiledJitCompilationE
artSetCharStaticFromCode
_ZN3art11ClassLinker34WriteBarrierForBootOatFileBssRootsEPKNS_7OatFileE
_ZThn136_N3art2gc5space11ZygoteSpace4FreeEPNS_6ThreadEPNS_6mirror6ObjectE
_ZN3art3jit12JitCodeCache16GetCurrentRegionEv
_ZGVZN3art6MemoryILm1EE4NameEvE3str
_ZN3art16CumulativeLoggerC1ERKNSt3__112basic_stringIcNS1_11char_traitsIcEENS1_9allocatorIcEEEE
_ZThn136_N3art2gc5space13RosAllocSpace17GetBytesAllocatedEv
_ZN3art11Transaction18RecordWriteField64EPNS_6mirror6ObjectENS_12MemberOffsetEmb
_ZN3art8verifier14MethodVerifier8ShutdownEv
_ZN3art25X86InstructionSetFeatures11FromVariantERKNSt3__112basic_stringIcNS1_11char_traitsIcEENS1_9allocatorIcEEEEPS7_b
CpuFeatures_StringView_PopFront
_ZNK3art11ClassLinker16CheckProxyMethodEPNS_9ArtMethodES2_
_ZN3art6Thread21ThrowOutOfMemoryErrorEPKc
_ZN3art6mirror14PrimitiveArrayIdE7GetDataEv
_ZN3art16RuntimeCallbacks11ThreadDeathEPNS_6ThreadE
artJniMonitoredMethodEnd
_ZN3art11ClassLinker18FindResolvedMethodENS_6ObjPtrINS_6mirror5ClassEEENS1_INS2_8DexCacheEEENS1_INS2_11ClassLoaderEEEj
_ZN3art2gc9allocator8RosAlloc11headerSizesE
_ZN3art3jit3JitD1Ev
_ZN3art34ThrowNullPointerExceptionFromDexPCEbm
_ZN3art11InternTable10RemoveWeakENS_6ObjPtrINS_6mirror6StringEEEj
_ZN3art5Trace7GetModeEv
_ZN3art11ImageHeader27RelocateBootImageReferencesEl
_ZN3art3jit3Jit27NotifyZygoteCompilationDoneEv
_ZN3art12ProfileSaver12ShuttingDownEPNS_6ThreadE
_ZTVN3art13VariantMapKeyIPFiP7__sFILEPKcSt9__va_listEEE
artQuickToInterpreterBridge
_ZN3art2gc5space5Space13AsZygoteSpaceEv
_ZN3art2gc5space10ImageSpace15ValidateOatFileERKNS_7OatFileEPNSt3__112basic_stringIcNS6_11char_traitsIcEENS6_9allocatorIcEEEENS_8ArrayRefIKSC_EENSE_IKiEERSF_
JNI_GetCreatedJavaVMs
_ZNK3art7Runtime21GetOatFilesExecutableEv
_ZN3art14ReferenceTableD2Ev
_ZNK3art12StackVisitor13ValidateFrameEv
_ZN7android4base4TrimIRNSt3__112basic_stringIcNS2_11char_traitsIcEENS2_9allocatorIcEEEEEES8_OT_
_ZNK3art8verifier13ReferenceType4DumpEv
_ZN3art30register_dalvik_system_VMStackEP7_JNIEnv
_ZN3art6Thread30AssertHasDeoptimizationContextEv
_ZN3art2gc5space10ImageSpace15ValidateOatFileERKNS_7OatFileEPNSt3__112basic_stringIcNS6_11char_traitsIcEENS6_9allocatorIcEEEE
_ZN3art7Monitor7InflateEPNS_6ThreadES2_NS_6ObjPtrINS_6mirror6ObjectEEEi
_ZN3art6Thread21RemoveFromThreadGroupEv
_ZN3art18GcVisitedArenaPool18DeleteUnusedArenasEv
_ZN3art3Dbg15PostThreadDeathEPNS_6ThreadE
_ZN3art2gc4Heap20MarkAllocStackAsLiveEPNS0_10accounting11AtomicStackINS_6mirror6ObjectEEE
_ZN3art3jit3Jit13MethodEnteredEPNS_6ThreadEPNS_9ArtMethodE
_ZN3art18RuntimeArgumentMap16BootClassPathFdsE
_ZNK3art25ArmInstructionSetFeatures16GetFeatureStringEv
artAllocStringObjectRegionTLAB
artGet32StaticFromCompiledCode
_ZTVN3art28RememberForGcArgumentVisitorE
_ZN3art2gc9allocator8RosAlloc17SetFootprintLimitEm
artQuickProxyInvokeHandler
_ZN3com7android3art12KeyValuePairC1ENSt3__112basic_stringIcNS3_11char_traitsIcEENS3_9allocatorIcEEEES9_
_ZN3art22IndirectReferenceTable10VisitRootsEPNS_11RootVisitorERKNS_8RootInfoE
_ZN3art25register_java_lang_ObjectEP7_JNIEnv
_ZN3art6Thread17FromManagedThreadERKNS_33ScopedObjectAccessAlreadyRunnableEP8_jobject
_ZN3art2ti5Agent6UnloadEv
_ZN3com7android3art4readEPKc
_ZN3art9hiddenapi6detail11GetDexFlagsINS_8ArtFieldEEEjPT_
_ZN3art24AddNativeDebugInfoForJitEPKvRKNSt3__16vectorIhNS2_9allocatorIhEEEEb
artAllocStringFromCharsFromCodeRegionTLABInstrumented
_ZN3art2gc14ReferenceQueue20ClearWhiteReferencesEPS1_PNS0_9collector16GarbageCollectorEb
_ZNK3art6mirror14PrimitiveArrayItE7GetDataEv
_ZNK3art6Thread4DumpERNSt3__113basic_ostreamIcNS1_11char_traitsIcEEEERN11unwindstack20AndroidLocalUnwinderEbb
_ZN3art2gc5space11MallocSpace13SweepCallbackEmPPNS_6mirror6ObjectEPv
_ZThn296_N3art2gc5space13FreeListSpaceD0Ev
_ZN3art16WellKnownClasses14java_lang_VoidE
_ZNSt3__113__vector_baseINS_12basic_stringIcNS_11char_traitsIcEENS_9allocatorIcEEEENS4_IS6_EEED2Ev
_ZTVN3art23GetClassInToObjectArrayE
_ZN3art6mirror14PrimitiveArrayIiE15AllocateAndFillEPNS_6ThreadEPKim
_ZN3art6mirror23ByteBufferViewVarHandle18GetNativeByteOrderEv
_ZN3art23OatFileAssistantContextC2EPNS_7RuntimeE
_ZTVN3art13VariantMapKeyIPFvvEEE
_ZNK3art2gc5space13FreeListSpace13ForEachMemMapENSt3__18functionIFvRKNS_6MemMapEEEE
_ZN3art6HandleINS_6mirror14FieldVarHandleEE10GetFromGdbEv
_ZN3art3jit3Jit26WaitForCompilationToFinishEPNS_6ThreadE
_ZN3art18RuntimeArgumentMap13PrimaryZygoteE
_ZN3artlsERNSt3__113basic_ostreamIcNS0_11char_traitsIcEEEENS_18WeakRefAccessStateE
_ZNK3art2gc10accounting17MemoryRangeBitmapILm1024EE16BitIndexFromAddrEm
_ZN3art6mirror5Class10IsMirroredEv
_ZN3art5Locks19jni_libraries_lock_E
_ZN3art2gc10accounting11SpaceBitmapILm8EE12OffsetToMaskEm
_ZN3art3jit12JitCodeCache21NotifyMethodRedefinedEPNS_9ArtMethodE
_ZN3art9OatHeader35SetQuickImtConflictTrampolineOffsetEj
_ZN3art11ClassLinker22WaitForInitializeClassENS_6HandleINS_6mirror5ClassEEEPNS_6ThreadERNS_10ObjectLockIS3_EE
_ZTVN3art6detail20CmdlineParseArgumentINS_8verifier10VerifyModeEEE
_ZN3art5Trace8ShutdownEv
_ZNK3art8verifier12DoubleHiType4DumpEv
_ZN3art16WellKnownClasses50libcore_reflect_AnnotationFactory_createAnnotationE
_ZN3art15instrumentation23InstrumentationListener12MethodExitedEPNS_6ThreadEPNS_9ArtMethodENSt3__18optionalINS6_17reference_wrapperIKNS_11ShadowFrameEEEEERNS_13MutableHandleINS_6mirror6ObjectEEE
_ZN3art11Transaction15ThrowAbortErrorEPNS_6ThreadEPKNSt3__112basic_stringIcNS3_11char_traitsIcEENS3_9allocatorIcEEEE
_ZNK3com7android3art9Component7getSizeEv
_ZN3art6Thread18RunEmptyCheckpointEv
_ZTVN3art20StackOverflowHandlerE
_ZN3art2gc20AllocRecordObjectMap10VisitRootsEPNS_11RootVisitorE
_ZN3art2gc4Heap7CompactEPNS0_5space26ContinuousMemMapAllocSpaceES4_NS0_7GcCauseE
_ZN3art5hprof5Hprof19DumpFakeObjectArrayEPNS_6mirror6ObjectERKNSt3__13setIS4_NS5_4lessIS4_EENS5_9allocatorIS4_EEEE
artSet16StaticFromCompiledCode
_ZN3art6HandleINS_6mirror11ObjectArrayINS1_11ConstructorEEEE10GetFromGdbEv
_ZN3com7android3art12KeyValuePairC2ENSt3__112basic_stringIcNS3_11char_traitsIcEENS3_9allocatorIcEEEES9_
_ZNK3art2gc10accounting17MemoryRangeBitmapILm16EE10CoverBeginEv
_ZThn16_N3art2gc9collector9MarkSweep10MarkObjectEPNS_6mirror6ObjectE
_ZN3art11interpreter30EnterInterpreterFromEntryPointEPNS_6ThreadERKNS_20CodeItemDataAccessorEPNS_11ShadowFrameE
_ZN3art3jit15JitMemoryRegion8FreeCodeEPKh
_ZN3art23ThrowIllegalAccessErrorENS_6ObjPtrINS_6mirror5ClassEEEPKcz
_ZN3art6mirror5Array6CopyOfENS_6HandleIS1_EEPNS_6ThreadEi
_ZN3art2gc10accounting11SpaceBitmapILm8EE16CreateFromMemMapERKNSt3__112basic_stringIcNS4_11char_traitsIcEENS4_9allocatorIcEEEEONS_6MemMapEPhm
_ZN3art8VdexFile14VdexFileHeaderC2Eb
_ZN3art5Locks11abort_lock_E
_ZTVN3art22DeoptimizeStackVisitorE
_ZN3art8verifier14MethodVerifier4InitEPNS_11ClassLinkerE
_ZTVN3art31ReflectiveHandleScopeSourceInfoE
_ZN3art2gc4Heap10SwapStacksEv
_ZN3art2gc9collector9MarkSweep19MarkRootsCheckpointEPNS_6ThreadEb
_ZN3art3jni19LocalReferenceTableC1Eb
_ZN3art16WellKnownClasses22java_lang_Daemons_stopE
_ZN3art8verifier13UndefinedType7DestroyEv
_ZNK3art8verifier12VerifierDeps15GetStringFromIdERKNS_7DexFileENS_3dex11StringIndexE
_ZN3art16CumulativeLogger9AddLoggerERKNS_12TimingLoggerE
_ZN3art16WellKnownClasses23java_lang_Daemons_startE
_ZN3art16WellKnownClasses23java_lang_StringFactoryE
_ZN3art18RuntimeArgumentMap20ZygoteMaxFailedBootsE
_ZN3art8VdexFile14VdexFileHeader12kVdexVersionE
_ZN3artlsERNSt3__113basic_ostreamIcNS0_11char_traitsIcEEEENS_11TraceActionE
_ZN3art11ClassLinker12VisitClassesEPNS_12ClassVisitorE
_ZN3art2gc20AllocRecordObjectMapD2Ev
_ZN3art11interpreter16UnstartedRuntime26UnstartedClassClassForNameEPNS_6ThreadEPNS_11ShadowFrameEPNS_6JValueEm
_ZN3art15MemMapArenaPoolD1Ev
_ZN3art11annotations24IsFieldAnnotationPresentEPNS_8ArtFieldENS_6HandleINS_6mirror5ClassEEE
_ZN3art10ThreadList15FlipThreadRootsEPNS_7ClosureES2_PNS_2gc9collector16GarbageCollectorEPNS3_15GcPauseListenerE
_ZTVN3art13VariantMapKeyINS_25MillisecondsToNanosecondsEEE
_ZNK3art12StackVisitor28GetVRegPairFromOptimizedCodeEPNS_9ArtMethodEtNS_8VRegKindES3_Pm
_ZNK3com7android4apex8ApexInfo24getProvideSharedApexLibsEv
_ZNK3art16CumulativeLogger13GetIterationsEv
_ZNK3art9hiddenapi6detail15MemberSignature15DoesPrefixMatchERKNSt3__112basic_stringIcNS3_11char_traitsIcEENS3_9allocatorIcEEEE
_ZN3art10ThreadList34WaitForOtherNonDaemonThreadsToExitEb
_ZN3art6mirror6String11IsValueNullEv
_ZZN3art11CmdlineTypeINS_6MemoryILm1EEEE12DescribeTypeEvE3str
_ZN3art25ArmInstructionSetFeatures12FromAssemblyEv
_ZN3art12FaultManager17HandleSigbusFaultEiP7siginfoPv
_ZN3art10OatDexFileC2EPKNS_7OatFileERKNSt3__112basic_stringIcNS4_11char_traitsIcEENS4_9allocatorIcEEEESC_jPKhSE_PKNS_19LengthPrefixedArrayINS_20IndexBssMappingEntryEEESJ_SJ_SJ_SJ_PKjPKNS_17DexLayoutSectionsE
_ZNK3art6Thread9DumpStateERNSt3__113basic_ostreamIcNS1_11char_traitsIcEEEE
_ZNK3art6Thread19DecodeGlobalJObjectEP8_jobject
_ZN3art2gc18ReferenceProcessor15SlowPathEnabledEv
_ZN3art11interpreter16UnstartedRuntime6InvokeEPNS_6ThreadERKNS_20CodeItemDataAccessorEPNS_11ShadowFrameEPNS_6JValueEm
_ZN3art16OatFileAssistant30ValidateBootClassPathChecksumsERKNS_7OatFileE
artJniMethodStart
_ZN3art9ArtMethod18GetCanonicalMethodENS_11PointerSizeE
_ZN3art16WellKnownClasses41dalvik_system_BaseDexClassLoader_pathListE
_ZN3art16WellKnownClasses40java_lang_Throwable_suppressedExceptionsE
_ZN3art16InterpreterCache5ClearEPNS_6ThreadE
_ZN3art16RuntimeCallbacks18AddMonitorCallbackEPNS_15MonitorCallbackE
_ZN3art5MutexC1EPKcNS_9LockLevelEb
_ZN3art2gc9collector11MarkCompact16SweepSystemWeaksEPNS_6ThreadEPNS_7RuntimeEb
_ZN3art2gc9collector11MarkCompact25KernelPrepareRangeForUffdEPhS3_miS3_
_ZN3art2gc4Heap23EnsureObjectUserfaultedENS_6ObjPtrINS_6mirror6ObjectEEE
_ZN3art16RuntimeCallbacks17RemoveDdmCallbackEPNS_11DdmCallbackE
_ZTVN3art13VariantMapKeyIbEE
_ZN3art22InstructionSetFeatures9FromHwcapEv
_ZN3art11ClassLinker14LinkSuperClassENS_6HandleINS_6mirror5ClassEEE
_ZNK3art2gc5space16BumpPointerSpace4DumpERNSt3__113basic_ostreamIcNS3_11char_traitsIcEEEE
_ZN3art11interpreter16UnstartedRuntime16UnstartedMathPowEPNS_6ThreadEPNS_11ShadowFrameEPNS_6JValueEm
_ZN3art21QuickExceptionHandlerC1EPNS_6ThreadEb
_ZN3art16WellKnownClasses8LateInitEP7_JNIEnv
_ZN3art37SetQuickAllocEntryPoints_bump_pointerEPNS_16QuickEntryPointsEb
_ZN3art24JniDecodeReferenceResultEP8_jobjectPNS_6ThreadE
_ZN3art14AotClassLinker24PerformClassVerificationEPNS_6ThreadEPNS_8verifier12VerifierDepsENS_6HandleINS_6mirror5ClassEEENS3_15HardFailLogModeEPNSt3__112basic_stringIcNSB_11char_traitsIcEENSB_9allocatorIcEEEE
_ZNK3art7OatFile21InitializeRelocationsEv
_ZN3art11Transaction23RecordWeakStringRemovalENS_6ObjPtrINS_6mirror6StringEEE
NterpGetShorty
_ZNK3art11ElfFileImplINS_10ElfTypes32EE21GetStringSectionStartEj
_ZN3art11InternTable19WaitUntilAccessibleEPNS_6ThreadE
_ZN3art6mirror22ByteArrayViewVarHandle6AccessENS0_9VarHandle10AccessModeEPNS_11ShadowFrameEPKNS_19InstructionOperandsEPNS_6JValueE
_ZNK3art9OatHeader17GetInstructionSetEv
_ZN3art11annotations18GetEnclosingMethodENS_6HandleINS_6mirror5ClassEEE
_ZN3art18RuntimeArgumentMap27JITCodeCacheInitialCapacityE
_ZN3art6Thread25ClearAllInterpreterCachesEv
_ZTVN3art21RuntimeArgumentMapKeyIjEE
_ZN3art6Thread25PassActiveSuspendBarriersEPS0_
_ZNK3art11ElfFileImplINS_10ElfTypes64EE14GetBaseAddressEv
_ZN3art2gc10accounting22ModUnionTableCardCache8SetCardsEv
_ZNK3art2gc4Heap23IsGCDisabledForShutdownEv
_ZN3art9hiddenapi6detail15MemberSignatureC2ERKNS_13ClassAccessor6MethodE
_ZNK3art15instrumentation15Instrumentation10BranchImplEPNS_6ThreadEPNS_9ArtMethodEji
_ZNK3art17JavaFrameRootInfo8DescribeERNSt3__113basic_ostreamIcNS1_11char_traitsIcEEEE
_ZN3art11ClassLinker19AllocArtMethodArrayEPNS_6ThreadEPNS_11LinearAllocEm
_ZNK3art11ElfFileImplINS_10ElfTypes64EE9GetHeaderEv
_ZN3art2gc18ReferenceProcessorC1Ev
_ZN3art7Monitor17AtraceMonitorLockEPNS_6ThreadENS_6ObjPtrINS_6mirror6ObjectEEEb
_ZNK3art22InstructionSetFeatures29AsArm64InstructionSetFeaturesEv
_ZNK3art18ClassLoaderContext23EncodeContextForDex2oatERKNSt3__112basic_stringIcNS1_11char_traitsIcEENS1_9allocatorIcEEEE
_ZNK3art11ElfFileImplINS_10ElfTypes64EE21GetLoadedAddressRangeEPPhPmPNSt3__112basic_stringIcNS6_11char_traitsIcEENS6_9allocatorIcEEEE
_ZN3art2gc10accounting22ModUnionTableCardCache12VisitObjectsEPFvPNS_6mirror6ObjectEPvES6_
_ZN3art6mirror14PrimitiveArrayIdE3GetEi
_ZN3art29Riscv64InstructionSetFeatures11FromVariantERKNSt3__112basic_stringIcNS1_11char_traitsIcEENS1_9allocatorIcEEEEPS7_
artDeliverPendingExceptionFromCode
_ZN3art17ReaderWriterMutex26HandleSharedLockContentionEPNS_6ThreadEi
_ZN3art11ClassLinker22CreateImtConflictTableEmPNS_11LinearAllocE
_ZN3art11ClassLinker21AppendToBootClassPathEPNS_6ThreadEPKNS_7DexFileE
_ZN3art2gc4Heap37CalculatePostGcWeightedAllocatedBytesEv
_ZN3art15instrumentation15Instrumentation20AddDeoptimizedMethodEPNS_9ArtMethodE
_ZN3art7Runtime25RecordWeakStringInsertionENS_6ObjPtrINS_6mirror6StringEEE
_ZN3art7Runtime23CreateImtConflictMethodEPNS_11LinearAllocE
_ZN3art2gc10accounting10HeapBitmap27RemoveContinuousSpaceBitmapEPNS1_11SpaceBitmapILm8EEE
_ZN3art2gc9collector11MarkCompact21UpdateAndMarkModUnionEv
_ZN3art5Trace5StartEimiNS0_15TraceOutputModeENS0_9TraceModeEi
_ZN3art7Runtime18StartSignalCatcherEv
_ZN3art22ScopedExceptionStorageC2EPNS_6ThreadE
_ZN3art17SuspensionHandlerC1EPNS_12FaultManagerE
_ZN3art11interpreter16UnstartedRuntime38UnstartedJdkUnsafeCompareAndSwapObjectEPNS_6ThreadEPNS_11ShadowFrameEPNS_6JValueEm
_ZN3art6Thread18GetLongJumpContextEv
_ZN3art6HandleINS_6mirror6StringEE10GetFromGdbEv
_ZN3art10ElfOatFile4LoadERKNSt3__112basic_stringIcNS1_11char_traitsIcEENS1_9allocatorIcEEEEbbbPNS_6MemMapEPS7_
_ZN3art10ThreadPoolD2Ev
_ZN3art2gc4Heap23PreGcVerificationPausedEPNS0_9collector16GarbageCollectorE
_ZN3art6mirror14PrimitiveArrayIfE7MemmoveEiNS_6ObjPtrIS2_EEii
_ZTVN3art8verifier26UninitializedReferenceTypeE
_ZN3art2gc9collector17ConcurrentCopying14IsOnAllocStackEPNS_6mirror6ObjectE
_ZN3art18RuntimeArgumentMap20ImageCompilerOptionsE
_ZN3art28HandleUnexpectedSignalCommonEiP7siginfoPvbb
_ZN3art2gc9collector11MarkCompact13SigbusHandlerEP7siginfo
_ZN3art7Monitor4LockILNS_10LockReasonE1EEEvPNS_6ThreadE
_ZN3art13DlOpenOatFile4LoadERKNSt3__112basic_stringIcNS1_11char_traitsIcEENS1_9allocatorIcEEEEbbbPNS_6MemMapEPS7_
_ZN3com7android3art21SystemServerComponentC2ENSt3__112basic_stringIcNS3_11char_traitsIcEENS3_9allocatorIcEEEEmS9_b
_ZThn16_N3art2gc9collector17ConcurrentCopying10MarkObjectEPNS_6mirror6ObjectE
_ZN3art11interpreter16UnstartedRuntime33UnstartedJNIVMStackGetStackClass2EPNS_6ThreadEPNS_9ArtMethodEPNS_6mirror6ObjectEPjPNS_6JValueE
_ZNK3art8verifier17UninitializedType23IsNonZeroReferenceTypesEv
_ZNK3art2gc12Verification20DumpRAMAroundAddressEmm
_ZN3art12FaultManagerD1Ev
_ZN3art9hiddenapi38InitializeCorePlatformApiPrivateFieldsEv
_ZN3art15instrumentation34ReportMethodEntryForOnStackMethodsEPNS0_23InstrumentationListenerEPNS_6ThreadE
_ZN3art5Trace14FreeStackTraceEPNSt3__16vectorIPNS_9ArtMethodENS1_9allocatorIS4_EEEE
_ZN3art8ArtField9SetOffsetENS_12MemberOffsetE
_ZN3art8verifier13ClassVerifier11VerifyClassEPNS_6ThreadEPNS0_12VerifierDepsEPKNS_7DexFileENS_6HandleINS_6mirror5ClassEEENS9_INSA_8DexCacheEEENS9_INSA_11ClassLoaderEEERKNS_3dex8ClassDefEPNS_17CompilerCallbacksENS0_15HardFailLogModeEjPNSt3__112basic_stringIcNSO_11char_traitsIcEENSO_9allocatorIcEEEE
_ZN3art11ElfFileImplINS_10ElfTypes64EE16FindSymbolByNameEjRKNSt3__112basic_stringIcNS3_11char_traitsIcEENS3_9allocatorIcEEEEb
_ZNK3art2gc10accounting11SpaceBitmapILm4096EE4SizeEv
_ZTVN3art2gc9collector17ConcurrentCopying40ActivateReadBarrierEntrypointsCheckpointE
_ZN3art11interpreter16UnstartedRuntime32UnstartedUnsafePutObjectVolatileEPNS_6ThreadEPNS_11ShadowFrameEPNS_6JValueEm
_ZN3art20gJniSleepForeverStubE
_ZN3art6mirror9VarHandle18GetCoordinateType1Ev
_ZN3art8verifier14MethodVerifierD0Ev
artThrowArrayStoreException
_ZN3art7Runtime19ExitTransactionModeEv
_ZN3art6mirror5Class25PrettyClassAndClassLoaderEv
_ZN3art2gc9collector9SemiSpace10VisitRootsEPPNS_6mirror19CompressedReferenceINS3_6ObjectEEEmRKNS_8RootInfoE
_ZN3art2gc5space13DlMallocSpaceC1EONS_6MemMapEmRKNSt3__112basic_stringIcNS5_11char_traitsIcEENS5_9allocatorIcEEEEPvPhSF_SF_mbm
_ZNK3art8verifier20UnresolvedMergedType4DumpEv
_ZNK3art2gc10accounting11SpaceBitmapILm8EE8HeapSizeEv
_ZN3art2gc9collector11MarkCompact18ProcessLinearAllocEv
_ZNK3art7Runtime11EnvSnapshot11GetSnapshotEv
_ZN3art2gc5space11ZygoteSpace6CreateERKNSt3__112basic_stringIcNS3_11char_traitsIcEENS3_9allocatorIcEEEEONS_6MemMapEONS0_10accounting11SpaceBitmapILm8EEESH_
_ZN3art22ScopedProfilingInfoUseC1EPNS_3jit3JitEPNS_9ArtMethodEPNS_6ThreadE
_ZN3art2gc9collectorlsERNSt3__113basic_ostreamIcNS2_11char_traitsIcEEEENS1_11MarkCompact15ClampInfoStatusE
_ZN3art11QuasiAtomic15SwapMutexRead64EPVKl
_ZN3art3jni19LocalReferenceTable3AddENS0_15LRTSegmentStateENS_6ObjPtrINS_6mirror6ObjectEEEPNSt3__112basic_stringIcNS7_11char_traitsIcEENS7_9allocatorIcEEEE
_ZNK3art2gc9collector12ImmuneSpaces13ContainsSpaceEPNS0_5space15ContinuousSpaceE
_ZN3art2gc5space11ZygoteSpace28LogFragmentationAllocFailureERNSt3__113basic_ostreamIcNS3_11char_traitsIcEEEEm
_ZN3art5Trace5StartEPKcmiNS0_15TraceOutputModeENS0_9TraceModeEi
_ZN3art5Trace10ReadClocksEPNS_6ThreadEPjPm
_ZN3art11ClassLinker22FindDexCacheDataLockedERKNS_7DexFileE
_ZN3art11ElfFileImplINS_10ElfTypes32EE16FindSymbolByNameEjRKNSt3__112basic_stringIcNS3_11char_traitsIcEENS3_9allocatorIcEEEEb
_ZN3art2gc4Heap14VlogHeapGrowthEmmm
_ZTVNSt3__113basic_filebufIcNS_11char_traitsIcEEEE
_ZN3art11annotations22GetPermittedSubclassesENS_6HandleINS_6mirror5ClassEEE
_ZTVN3art23ClearJitCountersVisitorE
_ZNK3art10SdkChecker16ShouldDenyAccessEPKc
_ZN3art13ObjectTryLockINS_6mirror5ClassEED1Ev
_ZN3art11interpreter16UnstartedRuntime16UnstartedMathSinEPNS_6ThreadEPNS_11ShadowFrameEPNS_6JValueEm
_ZN3art21NterpGetVRegReferenceEPPNS_9ArtMethodEt
_ZN3art7Runtime6CreateEONS_18RuntimeArgumentMapE
_ZN3art11interpreter27DoVarHandleGetAndSetReleaseEPNS_6ThreadERNS_11ShadowFrameEPKNS_11InstructionEtPNS_6JValueE
_ZN3art2gc9collector9MarkSweep15ExpandMarkStackEv
_ZN3art2gc4Heap10TrimSpacesEPNS_6ThreadE
_ZN3art12ProfileSaver17profiler_pthread_E
_ZN3art6mirror14PrimitiveArrayIaE3GetEi
_ZN3art10ObjectLockINS_6mirror6ObjectEED1Ev
_ZN3art2gc5space5Space15AsDlMallocSpaceEv
_ZN3art6mirror21ArrayElementVarHandle15CheckArrayStoreENS0_9VarHandle10AccessModeENS_17ShadowFrameGetterENS_6ObjPtrINS0_11ObjectArrayINS0_6ObjectEEEEE
_ZN3com7android4apex8ApexInfoC2ENSt3__112basic_stringIcNS3_11char_traitsIcEENS3_9allocatorIcEEEES9_NS3_8optionalIS9_EElS9_bbNSA_IlEEb
_ZN3com7android3art16KeyValuePairListC1ENSt3__16vectorINS1_12KeyValuePairENS3_9allocatorIS5_EEEE
_ZN3art18GcVisitedArenaPoolC1EbbPKc
_ZN3art12FaultManager10AddHandlerEPNS_12FaultHandlerEb
_ZN3art11ImageHeaderC1EjjjjPNS_12ImageSectionEjjjjjjjjjjj
_ZN3art7Runtime5StartEv
_ZN3art3jni12JniIdManager22VisitReflectiveTargetsEPNS_22ReflectiveValueVisitorE
_ZN3art6mirror8DexCache19UnlinkStartupCachesEv
_ZN3art58ThrowIncompatibleClassChangeErrorClassForInterfaceDispatchEPNS_9ArtMethodENS_6ObjPtrINS_6mirror6ObjectEEES1_
_ZN3art2gc5space16BumpPointerSpace28LogFragmentationAllocFailureERNSt3__113basic_ostreamIcNS3_11char_traitsIcEEEEm
_ZNKSt3__110__function6__funcIPFbRKNS_12basic_stringIcNS_11char_traitsIcEENS_9allocatorIcEEEEjENS5_ISB_EESA_E7__cloneEPNS0_6__baseISA_EE
_ZN3art3jit12JitCodeCache13DoneCompilingEPNS_9ArtMethodEPNS_6ThreadE
_ZN3art18RuntimeArgumentMap34JITZygotePoolThreadPthreadPriorityE
_ZN3art3jit12JitCodeCache20FreeAllMethodHeadersERKNSt3__113unordered_setIPNS_20OatQuickMethodHeaderENS2_4hashIS5_EENS2_8equal_toIS5_EENS2_9allocatorIS5_EEEE
_ZN3art16WellKnownClasses36java_lang_Double_doubleToRawLongBitsE
_ZN3art5Locks25classlinker_classes_lock_E
_ZNSt3__16__treeINS_12basic_stringIcNS_11char_traitsIcEENS_9allocatorIcEEEENS_4lessIS6_EENS4_IS6_EEE7destroyEPNS_11__tree_nodeIS6_PvEE
_ZN3art11interpreter22DoVarHandleSetVolatileEPNS_6ThreadERNS_11ShadowFrameEPKNS_11InstructionEtPNS_6JValueE
_ZTVN3art26BackgroundVerificationTaskE
CpuFeatures_StringView_HasWord
_ZN3art2gc9collector11MarkCompact20PrepareForCompactionEv
_ZNSt3__16vectorINS_12basic_stringIcNS_11char_traitsIcEENS_9allocatorIcEEEENS4_IS6_EEE21__push_back_slow_pathIS6_EEvOT_
_ZN3art6HandleINS_6mirror5FieldEE10GetFromGdbEv
_ZN3art3jni12JniIdManager16GetPointerMarkerEv
_ZN3art10ThreadList6ResumeEPNS_6ThreadENS_13SuspendReasonE
_ZN3art8verifier12RegTypeCache9FromClassEPKcNS_6ObjPtrINS_6mirror5ClassEEEb
_ZN3art2gc18ReferenceProcessor24CollectClearedReferencesEPNS_6ThreadE
_ZN3art2gc5space11MallocSpace12CreateMemMapERKNSt3__112basic_stringIcNS3_11char_traitsIcEENS3_9allocatorIcEEEEmPmSC_SC_
_ZTVN3art28X86_64InstructionSetFeaturesE
_ZN3art18RuntimeArgumentMap8CheckJniE
_ZN3art7Runtime14EndThreadBirthEv
_ZN3art11ClassLinker24ClassTableForClassLoaderENS_6ObjPtrINS_6mirror11ClassLoaderEEE
_ZN3art2gc9collector16GarbageCollector13RegisterPauseEm
_ZN3art2gc9collector11MarkCompact10VisitRootsEPPPNS_6mirror6ObjectEmRKNS_8RootInfoE
_ZNK3art11Transaction20WriteValueConstraintENS_6ObjPtrINS_6mirror6ObjectEEE
_ZNK3art7OatFile23GetBootImageRelocationsEv
_ZTVNSt3__120__shared_ptr_emplaceINS_12basic_stringIcNS_11char_traitsIcEENS_9allocatorIcEEEENS4_IS6_EEEE
_ZTVN3art25X86InstructionSetFeaturesE
_ZN3art23ThrowWrappedIOExceptionEPKcz
_ZN3art2gc9allocator8RosAlloc9RefillRunEPNS_6ThreadEm
_ZN3art9hiddenapi6detail15MemberSignature15WarnAboutAccessENS0_12AccessMethodENS0_7ApiListEb
_ZNK3art11ElfFileImplINS_10ElfTypes64EE23GetDynamicProgramHeaderEv
_ZTVN3art2gc9collector17ConcurrentCopying29CaptureRootsForMarkingVisitorILb1EEE
_ZN3art2gc9collector9SemiSpace22DelayReferenceReferentENS_6ObjPtrINS_6mirror5ClassEEENS3_INS4_9ReferenceEEE
_ZN3art19StringBuilderAppend7Builder13ConvertFpArgsEv
_ZN3art3Dbg15DdmDisconnectedEv
_ZN3art2gc9allocator8RosAlloc27dedicated_full_run_storage_E
_ZN3art14OatFileManager19OpenDexFilesFromOatEONSt3__16vectorINS_6MemMapENS1_9allocatorIS3_EEEEP8_jobjectP13_jobjectArrayPPKNS_7OatFileEPNS2_INS1_12basic_stringIcNS1_11char_traitsIcEENS4_IcEEEENS4_ISK_EEEE
_ZN3art6Thread13SetThreadNameEPKc
_ZTVN3art16StackDumpVisitorE
_ZNK3art11Transaction8ArrayLog14UndoArrayWriteEPNS_6mirror5ArrayENS_9Primitive4TypeEmm
_ZN3art11QuasiAtomic12gSwapMutexesE
_ZN3art11ClassLinker19GetClassesLockOwnerEv
_ZNK3art2gc10accounting17MemoryRangeBitmapILm8EE8CoverEndEv
_ZN3art5Trace9StartDDMSEmiNS0_9TraceModeEi
_ZN3art7Runtime20EnterTransactionModeEbPNS_6mirror5ClassE
_ZN3art11annotations21GetAnnotationForClassENS_6HandleINS_6mirror5ClassEEES4_
_ZN3art2gc10accounting17MemoryRangeBitmapILm1024EEC1EONS_6MemMapEmm
_ZN3art7Runtime22RemoveSystemWeakHolderEPNS_2gc24AbstractSystemWeakHolderE
_ZN3art11Transaction9ObjectLog8LogValueENS1_14FieldValueKindENS_12MemberOffsetEmb
_ZTVN3art8verifier14MethodVerifierE
_ZNSt3__113basic_filebufIcNS_11char_traitsIcEEE6setbufEPcl
_ZN3art5Locks25IsExpectedOnWeakRefAccessEPNS_9BaseMutexE
_ZN3art5Locks17jni_globals_lock_E
_ZN3art6mirror8DexCache14GetClassLoaderEv
_ZNK3art11ElfFileImplINS_10ElfTypes32EE7GetRelaER10elf32_shdrj
_ZN3art2gc10accounting11SpaceBitmapILm8EE5ClearEPKNS_6mirror6ObjectE
_ZN3art2gc10accounting11SpaceBitmapILm8EEC2ERKNSt3__112basic_stringIcNS4_11char_traitsIcEENS4_9allocatorIcEEEEONS_6MemMapEPmmPKvm
_ZN3art6mirror14PrimitiveArrayIlE5AllocEPNS_6ThreadEm
_ZN3art2gc5space11RegionSpace6Region15UnfreeLargeTailEPS2_j
_ZNK3art10ClassTable26NumReferencedZygoteClassesEv
_ZN3art12ProfileSaver5StartERKNS_19ProfileSaverOptionsERKNSt3__112basic_stringIcNS4_11char_traitsIcEENS4_9allocatorIcEEEEPNS_3jit12JitCodeCacheERKNS4_6vectorISA_NS8_ISA_EEEESC_
_ZN3art3jit12JitCodeCache21IsMethodBeingCompiledEPNS_9ArtMethodE
_ZN3art6mirror12MethodHandle23GetReturnTypeDescriptorEPKc
_ZN3art13ParsedOptions13UsageMessageVEP7__sFILEPKcSt9__va_list
_ZN3art16ThreadPoolWorkerC2EPNS_10ThreadPoolERKNSt3__112basic_stringIcNS3_11char_traitsIcEENS3_9allocatorIcEEEEm
_ZTVN3art8verifier12DoubleHiTypeE
_ZN3artlsERNSt3__113basic_ostreamIcNS0_11char_traitsIcEEEENS_5Trace9TraceFlagE
_ZN3art2gc9collector9MarkSweep21UpdateAndMarkModUnionEv
_ZN3art49register_org_apache_harmony_dalvik_ddmc_DdmServerEP7_JNIEnv
_ZN3art7Runtime18VisitConstantRootsEPNS_11RootVisitorE
_ZN3art8verifier10LongLoType9instance_E
artFindNativeMethod
_ZN3art2gc9collectorlsERNSt3__113basic_ostreamIcNS2_11char_traitsIcEEEENS1_11MarkCompact9PageStateE
_ZTVZN3art7Monitor4LockILNS_10LockReasonE1EEEvPNS_6ThreadEE17CollectStackTrace
_ZNK3art9OatHeader13GetOatAddressENS_8StubTypeE
_ZN3art8verifier14MethodVerifier25CalculateVerificationInfoEPNS_6ThreadEPNS_9ArtMethodEj
_ZN3art27Arm64InstructionSetFeatures12FromAssemblyEv
_ZN3art7Runtime14IsShuttingDownEPNS_6ThreadE
_ZN3art7metrics15MetricsReporter20GetNextPeriodSecondsEv
_ZTVN3art8verifier10LongLoTypeE
_ZTVN3art19CountClassesVisitorE
_ZN3art20NterpGetCatchHandlerEv
_ZNK3com7android3art9CacheInfo21getFirstBootClasspathEv
_ZN3art2gc5space11RegionSpace9UnprotectEv
_ZN3art11interpreter18GetNterpEntryPointEv
_ZNSt3__1lsINS_11char_traitsIcEEEERNS_13basic_ostreamIcT_EES6_PKc
_ZN3art2gc5space11RegionSpace5ClearEv
_ZTVN3art7metrics16MetricsFormatterE
_ZN3art11Transaction9ObjectLog12LogCharValueENS_12MemberOffsetEtb
_ZTVN3art6mirror6Object8AccessorIdEE
_ZN3art8verifier12DoubleLoType14CreateInstanceENS_6ObjPtrINS_6mirror5ClassEEERKNSt3__117basic_string_viewIcNS6_11char_traitsIcEEEEt
_ZN3art11interpreter16UnstartedRuntime28UnstartedJNIFieldGetArtFieldEPNS_6ThreadEPNS_9ArtMethodEPNS_6mirror6ObjectEPjPNS_6JValueE
_ZN3art6mirror14PrimitiveArrayIhE3SetEih
_ZN3art12StackVisitor9SetMethodEPNS_9ArtMethodE
_ZTVNSt3__110__function6__funcIN3art13ExecCallbacks8on_startMUliE_ENS_9allocatorIS5_EEFviEEE
_ZN3art2gc10accounting9CardTable15VerifyCardTableEv
_ZN3art2gc9collector11MarkCompact30InitNonMovingSpaceFirstObjectsEv
_ZN3art9JavaVMExt15DeleteGlobalRefEPNS_6ThreadEP8_jobject
_ZN3art6mirror23ByteBufferViewVarHandle6AccessENS0_9VarHandle10AccessModeEPNS_11ShadowFrameEPKNS_19InstructionOperandsEPNS_6JValueE
_ZNK3art13ObjectTryLockINS_6mirror5ClassEE8AcquiredEv
_ZN3com7android4apex8ApexInfoC1ENSt3__112basic_stringIcNS3_11char_traitsIcEENS3_9allocatorIcEEEES9_NS3_8optionalIS9_EElS9_bbNSA_IlEEb
_ZN3art3Dbg12DdmConnectedEv
_ZN3art12FaultManager10GetFaultPcEP7siginfoPv
_ZN3art5hprof5Hprof22DumpHeapInstanceObjectEPNS_6mirror6ObjectEPNS2_5ClassERKNSt3__13setIS4_NS7_4lessIS4_EENS7_9allocatorIS4_EEEE
_ZN3art2gc4Heap22AllocateInternalWithGcEPNS_6ThreadENS0_13AllocatorTypeEbmPmS5_S5_PNS_6ObjPtrINS_6mirror5ClassEEE
_ZN3art7Monitor17RemoveFromWaitSetEPNS_6ThreadE
_ZN3art16RuntimeCallbacksC2Ev
_ZN3art28RememberForGcArgumentVisitor15FixupReferencesEv
CpuFeatures_StringView_IsEquals
_ZNK3art7ElfFile4SizeEv
_ZN3art6mirror10Executable23InitializeFromArtMethodILNS_11PointerSizeE4EEEvPNS_9ArtMethodE
artAllocObjectFromCodeResolvedBumpPointerInstrumented
_ZN3art11MemMapArena8AllocateEmbPKc
_ZN3art22InstructionSetFeatures14FromCppDefinesEv
_ZN3artlsERNSt3__113basic_ostreamIcNS0_11char_traitsIcEEEENS_13SuspendReasonE
_ZN3art18NullPointerHandler6ActionEiP7siginfoPv
_ZN3art7Barrier9IncrementILNS0_12LockHandlingE1EEEvPNS_6ThreadEi
_ZN3art11ClassLinker21ForceClassInitializedEPNS_6ThreadENS_6HandleINS_6mirror5ClassEEE
_ZN3art20StackOverflowHandlerC2EPNS_12FaultManagerE
_ZN3art2gc10accounting17MemoryRangeBitmapILm16EE3SetEm
_ZNK3art15instrumentation15Instrumentation19MethodExitEventImplINS_6JValueEEEvPNS_6ThreadEPNS_9ArtMethodENSt3__18optionalINS8_17reference_wrapperIKNS_11ShadowFrameEEEEERT_
_ZN3art7MonitorD1Ev
_ZNK3art11ElfFileImplINS_10ElfTypes64EE16GetHashBucketNumEv
mspace_malloc_stats
_ZTVN3art2gc5space18DiscontinuousSpaceE
_ZN3art6HandleINS_6mirror11ObjectArrayINS1_17StackTraceElementEEEE10GetFromGdbEv
_ZN3art23VarHandleInvokeAccessorEPNS_6ThreadERNS_11ShadowFrameENS_6HandleINS_6mirror9VarHandleEEENS4_INS5_10MethodTypeEEENS6_10AccessModeEPKNS_19InstructionOperandsEPNS_6JValueE
_ZN3art7Runtime31WaitForThreadPoolWorkersToStartEv
_ZN3art11Transaction9ObjectLog10VisitRootsEPNS_11RootVisitorE
_ZNK3com7android3art9CacheInfo25hasSystemServerComponentsEv
_ZN3art6mirror5Class13GetSourceFileEv
_ZN3art2gc9allocator8RosAlloc10InitializeEv
_ZN3art2gc9collector11MarkCompact10VisitRootsEPPNS_6mirror19CompressedReferenceINS3_6ObjectEEEmRKNS_8RootInfoE
_ZN3art2gc4Heap12ConcurrentGCEPNS_6ThreadENS0_7GcCauseEbj
_ZN3art33RepackNativeDebugInfoForJitLockedEv
_ZTVN3art6mirror6Object8AccessorIiEE
_ZN3art18RuntimeArgumentMap26FastClassNotFoundExceptionE
_ZN3art27Arm64InstructionSetFeatures11FromVariantERKNSt3__112basic_stringIcNS1_11char_traitsIcEENS1_9allocatorIcEEEEPS7_
_ZThn8_N3art2gc9collector17ConcurrentCopying8IsMarkedEPNS_6mirror6ObjectE
_ZN3art2gc9collector11MarkCompact27RevokeAllThreadLocalBuffersEv
_ZN3art3jit3Jit14AddMemoryUsageEPNS_9ArtMethodEm
_ZN3art16RuntimeCallbacks27AddMethodInspectionCallbackEPNS_24MethodInspectionCallbackE
_ZTVN3art13VariantMapKeyIPNS_17CompilerCallbacksEEE
_ZN3art35ScopedAssertNoNewTransactionRecords16InstallAssertionEPKc
_ZN3art27ResolveMethodHandleFromCodeEPNS_9ArtMethodEj
_ZN3art6mirror19MethodHandlesLookup10GetDefaultEPNS_6ThreadE
_ZNK3art2gc10accounting17MemoryRangeBitmapILm1024EE8CoverEndEv
_ZN3art2gc4Heap20VerifyHeapReferencesEb
_ZN3art3jit15JitMemoryRegion18CreateZygoteMemoryEmPNSt3__112basic_stringIcNS2_11char_traitsIcEENS2_9allocatorIcEEEE
_ZN3art13FindMethodJNIERKNS_18ScopedObjectAccessEP7_jclassPKcS6_b
_ZTVN3art13DlOpenOatFileE
_ZN3art16OatFileAssistant12LoadDexFilesERKNS_7OatFileEPKc
_ZTVN3art13VariantMapKeyINSt3__16vectorINS_6PluginENS1_9allocatorIS3_EEEEEE
artAllocObjectFromCodeInitializedTLABInstrumented
_ZN3art18ClassLoaderContext15IsValidEncodingERKNSt3__112basic_stringIcNS1_11char_traitsIcEENS1_9allocatorIcEEEE
_ZTVN3art2gc10accounting22ModUnionTableCardCacheE
_ZTVN3art2gc4Heap23CollectorTransitionTaskE
_ZNK3art20IndexBssMappingEntry12GetBssOffsetEmjm
_ZN3art2gclsERNSt3__113basic_ostreamIcNS1_11char_traitsIcEEEENS0_13WeakRootStateE
_ZN3art16WellKnownClasses16java_lang_RecordE
_ZN3art2gc9collector12ImmuneRegionC2Ev
_ZN3art2gc5space11ZygoteSpace23SetMarkBitInLiveObjectsEv
_ZN3art9JavaVMExt9JniAbortVEPKcS2_St9__va_list
_ZN3art16WellKnownClasses23java_lang_String_charAtE
_ZN3art25ArmInstructionSetFeatures11FromCpuInfoEv
artSetObjStaticFromCode
_ZN3art16WellKnownClasses36java_lang_ref_FinalizerReference_addE
_ZN3art2gc9collector11MarkCompact18UpdateLivenessInfoEPNS_6mirror6ObjectEm
_ZN3art10ThreadListC1Em
_ZNK3art12StackVisitor6GetFPREj
_ZN3art6Thread13IsAotCompilerEv
_ZN3art22ClassHierarchyAnalysis13AddDependencyEPNS_9ArtMethodES2_PNS_20OatQuickMethodHeaderE
_ZN3art11ClassLinker20MarkClassInitializedEPNS_6ThreadENS_6HandleINS_6mirror5ClassEEE
_ZN3art6mirror10MethodType13NumberOfVRegsEv
_ZN3art6Thread12PushVerifierEPNS_8verifier14MethodVerifierE
_ZNK3art27Arm64InstructionSetFeatures8AsBitmapEv
_ZN3art11ClassLinker12SetClassRootENS_9ClassRootENS_6ObjPtrINS_6mirror5ClassEEE
_ZN3art11ClassLinker23VerifyClassUsingOatFileEPNS_6ThreadERKNS_7DexFileENS_6HandleINS_6mirror5ClassEEERNS_11ClassStatusE
_ZN3art6mirror5Class25GetDirectInterfaceTypeIdxEj
_ZN3art11Transaction25RecordStrongStringRemovalENS_6ObjPtrINS_6mirror6StringEEE
_ZN3art18GcVisitedArenaPoolD0Ev
_ZNK3art2gc10accounting11SpaceBitmapILm4096EE7GetNameEv
_ZN3art3jit3JitC1EPNS0_12JitCodeCacheEPNS0_10JitOptionsE
_ZN3art7Monitor16SetLockingMethodEPNS_6ThreadE
_ZN3art7Runtime15SetStatsEnabledEb
_ZN3com7android3art14ModuleInfoListC1ENSt3__16vectorINS1_10ModuleInfoENS3_9allocatorIS5_EEEE
_ZN3art11annotations30GetSignatureAnnotationForClassENS_6HandleINS_6mirror5ClassEEE
_ZNK3art7ElfFile23GetSectionOffsetAndSizeEPKcPmS3_
_ZN3art2gc10accounting22ModUnionTableCardCache15ContainsCardForEm
_ZN3art3jit12JitCodeCache30WaitUntilInlineCacheAccessibleEPNS_6ThreadE
_ZN3art14OatFileManager24OpenDexFilesFromOat_ImplEONSt3__16vectorINS_6MemMapENS1_9allocatorIS3_EEEEP8_jobjectP13_jobjectArrayPPKNS_7OatFileEPNS2_INS1_12basic_stringIcNS1_11char_traitsIcEENS4_IcEEEENS4_ISK_EEEE
_ZN3art14OatFileManagerD1Ev
artAllocStringFromBytesFromCodeRegionInstrumented
_ZN3art5Locks40reference_queue_phantom_references_lock_E
_ZN3art18NullPointerHandlerC1EPNS_12FaultManagerE
_ZN3art2gc5space11RegionSpace7ProtectEv
_ZN3art3jni17SmallLrtAllocator10DeallocateEPNS0_8LrtEntryEm
_ZN3art5Trace20GetMethodTracingModeEv
_ZN3art16WellKnownClasses5ClearEv
_ZNK3art2gc5space5Space4DumpERNSt3__113basic_ostreamIcNS3_11char_traitsIcEEEE
_ZN3art9ArtMethod8CopyFromEPS0_NS_11PointerSizeE
_ZN3art7BarrierC1Eib
_ZTVN3art18NullPointerHandlerE
_ZN3art2gc10accounting11SpaceBitmapILm8EE5ClearEv
_ZN3art17ReaderWriterMutex13SharedTryLockEPNS_6ThreadE
_ZN3art29ThrowWrongMethodTypeExceptionERKNSt3__112basic_stringIcNS0_11char_traitsIcEENS0_9allocatorIcEEEES8_
_ZN3art11HeapSampler19SetSamplingIntervalEi
_ZN3art2gc14ReferenceQueue26EnqueueFinalizerReferencesEPS1_PNS0_9collector16GarbageCollectorE
_ZN3art2gc5space11RegionSpace6Region20SetAsUnevacFromSpaceEb
_ZTVN3art21RuntimeArgumentMapKeyINS_19ProfileSaverOptionsEEE
_ZN3art2gc9collector11MarkCompact16ClampGrowthLimitEm
_ZNK3art2gc10accounting17MemoryRangeBitmapILm16EE8CoverEndEv
__jit_debug_register_code_ptr
_ZN3art13ProfilingInfoC1EPNS_9ArtMethodERKNSt3__16vectorIjNS3_9allocatorIjEEEE
_ZN3art13SignalCatcherC2Ev
artAllocObjectFromCodeInitializedBumpPointer
_ZN3com7android3art5writeERNSt3__113basic_ostreamIcNS2_11char_traitsIcEEEERKNS1_9CacheInfoE
_ZN3art2gc13TaskProcessor7AddTaskEPNS_6ThreadEPNS0_8HeapTaskE
artReadBarrierMark
_ZN3art11ClassLinker24AllocPrimitiveArrayClassEPNS_6ThreadENS_9ClassRootES3_
_ZNK3art2gc10accounting17MemoryRangeBitmapILm1024EE4TestEm
_ZTVN3art2gc9collector11MarkCompact23ClassLoaderRootsUpdaterE
_ZNK3art7Runtime20GetSystemThreadGroupEv
artSet64StaticFromCode
_ZN3art9ArtMethod15SetNotIntrinsicEv
_ZNK3art11ElfFileImplINS_10ElfTypes64EE9GetRelNumER10elf64_shdr
_ZN3art2gc5space10ImageSpaceD1Ev
_ZN3art3jni17SmallLrtAllocatorC1Ev
artDeoptimizeIfNeeded
_ZN3art7AppInfo21GetRegisteredCodeTypeERKNSt3__112basic_stringIcNS1_11char_traitsIcEENS1_9allocatorIcEEEE
_ZN3art7Runtime34AbortTransactionAndThrowAbortErrorEPNS_6ThreadERKNSt3__112basic_stringIcNS3_11char_traitsIcEENS3_9allocatorIcEEEE
_ZN3art11ClassLinker9LoadFieldERKNS_13ClassAccessor5FieldENS_6HandleINS_6mirror5ClassEEEPNS_8ArtFieldE
_ZN3art11ClassLinker22FindIncompatibleMethodENS_6ObjPtrINS_6mirror5ClassEEENS1_INS2_8DexCacheEEENS1_INS2_11ClassLoaderEEEj
_ZNK3art11ElfFileImplINS_10ElfTypes32EE17FindSectionByTypeEj
_ZN3art2gc9collector17ConcurrentCopying10MarkObjectEPNS_6mirror6ObjectE
_ZN3art2gc9collector11MarkCompact22DelayReferenceReferentENS_6ObjPtrINS_6mirror5ClassEEENS3_INS4_9ReferenceEEE
_ZN3art17ThrowNewExceptionEP7_JNIEnvP7_jclassPKcP8_jobject
_ZTVN3art6mirror6Object8AccessorIsEE
_ZN3art11ClassLinker22FindDexCacheDataLockedERKNS_10OatDexFileE
_ZN3art9JavaVMExt19DeleteWeakGlobalRefEPNS_6ThreadEP8_jobject
_ZN3art18RuntimeArgumentMap19ImageInstructionSetE
_ZNK3art11ElfFileImplINS_10ElfTypes32EE13GetLoadedSizeEPmPNSt3__112basic_stringIcNS4_11char_traitsIcEENS4_9allocatorIcEEEE
_ZN3art2gc5space18DiscontinuousSpaceC2ERKNSt3__112basic_stringIcNS3_11char_traitsIcEENS3_9allocatorIcEEEENS1_17GcRetentionPolicyE
_ZN3art11interpreter16UnstartedRuntime28UnstartedJNIVMRuntimeIs64BitEPNS_6ThreadEPNS_9ArtMethodEPNS_6mirror6ObjectEPjPNS_6JValueE
_ZN3art8verifier12RegisterLine17CheckBinaryOpWideEPNS0_14MethodVerifierEPKNS_11InstructionERKNS0_7RegTypeES9_S9_S9_S9_S9_
_ZN3art11MonitorPool19CreateMonitorInPoolEPNS_6ThreadES2_NS_6ObjPtrINS_6mirror6ObjectEEEi
_ZN3art7Runtime22CreateCalleeSaveMethodEv
_ZN3art5Locks23unexpected_signal_lock_E
_ZN3art16OatFileAssistant13OatFileStatusEv
_ZN3art10ObjectLockINS_6mirror8ClassExtEE6NotifyEv
_ZN3art16RuntimeCallbacks14AddDdmCallbackEPNS_11DdmCallbackE
_ZN3art3Dbg14DdmHandleChunkEP7_JNIEnvjRKNS_8ArrayRefIKaEEPjPNSt3__16vectorIhNS9_9allocatorIhEEEE
_ZN3art2gc20AllocRecordObjectMap25AllowNewAllocationRecordsEv
_ZN3art2gc9collector11MarkCompact9MarkRootsENS_14VisitRootFlagsE
_ZN3art27Arm64InstructionSetFeatures15FromCpuFeaturesEv
_ZN3art11ClassLinker34GetOrCreateAllocatorForClassLoaderENS_6ObjPtrINS_6mirror11ClassLoaderEEE
_ZTVN3art2gc9collector9MarkSweep25CheckpointMarkThreadRootsE
_ZN3art2gc5space13FreeListSpace4WalkEPFvPvS3_mS3_ES3_
_ZN3art11interpreter16UnstartedRuntime27UnstartedJNIObjectNotifyAllEPNS_6ThreadEPNS_9ArtMethodEPNS_6mirror6ObjectEPjPNS_6JValueE
_ZN3art11ClassLinker18UpdateClassMethodsENS_6ObjPtrINS_6mirror5ClassEEEPNS_19LengthPrefixedArrayINS_9ArtMethodEEE
_ZTVN3art15FunctionClosureE
_ZThn16_N3art2gc9collector17ConcurrentCopyingD0Ev
_ZNK3art8VdexFile23HasOnlyStandardDexFilesEv
_ZN3art11annotations18GetInnerClassFlagsENS_6HandleINS_6mirror5ClassEEEPj
_ZN3art15instrumentation15Instrumentation14RemoveListenerEPNS0_23InstrumentationListenerEj
_ZN3art12ProfileSaver19AnnotateSampleFlagsEj
_ZN3art16WellKnownClasses25java_lang_Integer_valueOfE
_ZN3art2gc4Heap28DoPendingCollectorTransitionEv
_ZN3art3jit12JitCodeCache13CodeCacheSizeEv
_ZN3art5Trace13MethodEnteredEPNS_6ThreadEPNS_9ArtMethodE
_ZN3art2gc4Heap22ResetGcPerformanceInfoEv
_ZN3art2gc4Heap24RemoveAllocationListenerEv
_ZN3art6mirror14PrimitiveArrayIlE16GetWithoutChecksEi
_ZN3art13NterpGetDexPCEPPNS_9ArtMethodE
_ZN3art16OatFileAssistant11OatFileInfoC2EPS0_b
_ZTVN3art13VariantMapKeyINS_6MemoryILm1EEEEE
_ZNK3art8StackMap4DumpEPNS_31VariableIndentationOutputStreamERKNS_8CodeInfoEjNS_14InstructionSetE
_ZN3art7metrics15MetricsReporter18SetCompilationInfoENS0_17CompilationReasonENS0_23CompilerFilterReportingE
_ZN3art6Plugin4LoadEPNSt3__112basic_stringIcNS1_11char_traitsIcEENS1_9allocatorIcEEEE
_ZN3art6Thread25InstallImplicitProtectionEv
_ZN3art8verifier12VerifierDeps14GetDexFileDepsERKNS_7DexFileE
_ZTVN3art17SuspensionHandlerE
_ZN3art2gc4Heap14CountInstancesERKNSt3__16vectorINS_6HandleINS_6mirror5ClassEEENS2_9allocatorIS7_EEEEbPm
_ZN3art6mirror5Class30GetDeclaredConstructorInternalILNS_11PointerSizeE4EEENS_6ObjPtrINS0_11ConstructorEEEPNS_6ThreadENS4_IS1_EENS4_INS0_11ObjectArrayIS1_EEEE
_ZN3art3jit3JitC2EPNS0_12JitCodeCacheEPNS0_10JitOptionsE
_ZNK3art8VdexFile18GetNextDexFileDataEPKhj
_ZTVN3art21RuntimeArgumentMapKeyINSt3__112basic_stringIcNS1_11char_traitsIcEENS1_9allocatorIcEEEEEE
_ZN3art11ClassLinker14RegisterNativeEPNS_6ThreadEPNS_9ArtMethodEPKv
_ZTVN3art11ClassLinker26VisiblyInitializedCallbackE
_ZN3art2gc10accounting17MemoryRangeBitmapILm8EEC2EONS_6MemMapEmm
_ZNKSt3__110__function6__funcIPFbRKNS_12basic_stringIcNS_11char_traitsIcEENS_9allocatorIcEEEEjENS5_ISB_EESA_E7__cloneEv
_ZNK3art6Thread24CreateInternalStackTraceERKNS_33ScopedObjectAccessAlreadyRunnableE
_ZN3art7metrics15MetricsReporterC2ERKNS0_15ReportingConfigEPNS_7RuntimeE
_ZN3art16WellKnownClasses20java_lang_Error_initE
_ZN3art32register_java_lang_StringFactoryEP7_JNIEnv
_ZN3art13ParsedOptions7DoParseERKNSt3__16vectorINS1_4pairINS1_12basic_stringIcNS1_11char_traitsIcEENS1_9allocatorIcEEEEPKvEENS7_ISC_EEEEbPNS_18RuntimeArgumentMapE
_ZTVN3art6detail20CmdlineParseArgumentIdEE
_ZN3art5Trace21default_clock_source_E
_ZNK3art8verifier34UnresolvedUninitializedThisRefType15CheckInvariantsEv
_ZN3art2gc5space21MemoryToolMallocSpaceINS1_13DlMallocSpaceELm8ELb1ELb0EE24MaxBytesBulkAllocatedForEm
_ZN3art10ObjectLockINS_6mirror5ClassEEC2EPNS_6ThreadENS_6HandleIS2_EE
_ZNK3art2gc4Heap18GetBlockingGcCountEv
_ZN3art2gc5space11RegionSpace33CheckLiveBytesAgainstRegionBitmapEPNS2_6RegionE
_ZN3art6HandleINS_6mirror19MethodHandlesLookupEE13ObjectFromGdbEv
_ZN3art7Monitor10VisitLocksEPNS_12StackVisitorEPFvNS_6ObjPtrINS_6mirror6ObjectEEEPvES7_b
NterpGetCodeItem
_ZN3art6mirror14PrimitiveArrayIaE5AllocEPNS_6ThreadEm
_ZNK3art11ElfFileImplINS_10ElfTypes32EE9GetRelNumER10elf32_shdr
_ZNK3art9OatHeader20GetKeyValueStoreSizeEv
_ZN3art6Thread21CreateCompileTimePeerEPKcbP8_jobject
_ZN3art16RuntimeCallbacks20RemoveMethodCallbackEPNS_14MethodCallbackE
_ZN3art5Trace15AllocStackTraceEv
_ZN3art8verifier12VerifierDeps9MergeWithENSt3__110unique_ptrIS1_NS2_14default_deleteIS1_EEEERKNS2_6vectorIPKNS_7DexFileENS2_9allocatorISA_EEEE
_ZN3art11annotations17GetDeclaringClassENS_6HandleINS_6mirror5ClassEEE
_ZNK3art2gc10accounting9CardTable17AddrIsInCardTableEPKv
_ZN3art15instrumentation15Instrumentation26UpdateInstrumentationLevelENS1_20InstrumentationLevelE
_ZNK3art6Thread15IsStillStartingEv
_ZN3art8verifier12RegisterLine11PushMonitorEPNS0_14MethodVerifierEji
NterpHotMethod
_ZN3art16CumulativeLogger3EndEv
_ZTVN3art8verifier16PreciseConstTypeE
_ZN3art16WellKnownClasses34java_lang_reflect_Parameter__arrayE
_ZTVN3art27Arm64InstructionSetFeaturesE
_ZNK3art8verifier12VerifierDeps14GetDexFileDepsERKNS_7DexFileE
_ZN3art11ElfFileImplINS_10ElfTypes64EEC1EPN9unix_file6FdFileEbb
_ZN3art3jit12JitCodeCache19CopyInlineCacheIntoERKNS_11InlineCacheEPNS_16StackHandleScopeILm5EEE
artCriticalNativeFrameSize
_ZN3art2gc4Heap11RequestTrimEPNS_6ThreadE
_ZTVN3art6detail20CmdlineParseArgumentIiEE
_ZN3art12StackVisitorC2EPNS_6ThreadEPNS_7ContextENS0_13StackWalkKindEmb
_ZThn136_N3art2gc5space11RegionSpace24RevokeThreadLocalBuffersEPNS_6ThreadE
_ZN3art2gc9collector9IterationC1Ev
_ZN3art2gc5space13DlMallocSpace4FreeEPNS_6ThreadEPNS_6mirror6ObjectE
_ZN3art2gc13TaskProcessorD2Ev
_ZN3art5arm6412Arm64Context6SetGPREjm
_ZN3art22GetClassRootDescriptorENS_9ClassRootE
_ZN3art3Dbg20GetRecentAllocationsEv
_ZN3art2gc10accounting11SpaceBitmapILm4096EE8CopyViewERS3_
_ZN3art2gc4Heap16DeleteThreadPoolEv
_ZN3art6HandleINS_6mirror5ClassEE13ObjectFromGdbEv
_ZN3art6mirror5Class17GetStaticFieldIdsEv
_ZNK3art8verifier9ShortType4DumpEv
_ZNK3art12StackVisitor11GetVRegPairEPNS_9ArtMethodEtNS_8VRegKindES3_Pm
_ZN3art11ClassLinker13DoResolveTypeIPNS_9ArtMethodEEENS_6ObjPtrINS_6mirror5ClassEEENS_3dex9TypeIndexET_
_ZN3art17ConditionVariableD1Ev
_ZN3art18GcVisitedArenaPool14FreeArenaChainEPNS_5ArenaE
_ZThn136_N3art2gc5space13RosAllocSpace19GetObjectsAllocatedEv
_ZN3art6HandleINS_6mirror6StringEE13ObjectFromGdbEv
_ZN3art11interpreter16UnstartedRuntime25UnstartedClassForNameLongEPNS_6ThreadEPNS_11ShadowFrameEPNS_6JValueEm
_ZN3art9JavaVMExt19DumpReferenceTablesERNSt3__113basic_ostreamIcNS1_11char_traitsIcEEEE
_ZN3art6ThreadC1Eb
_ZTVN3art2gc5space13DlMallocSpaceE
_ZNK3art8verifier30UnresolvedUninitializedRefType4DumpEv
artGetObjInstanceFromCompiledCode
_ZN3art12TimingLoggerD1Ev
_ZN3art2gc9collector9MarkSweepC2EPNS0_4HeapEbRKNSt3__112basic_stringIcNS5_11char_traitsIcEENS5_9allocatorIcEEEE
_ZN3art8verifier12RegTypeCache34FillPrimitiveAndSmallConstantTypesEv
_ZNK3art2gc4Heap32DumpBlockingGcCountRateHistogramERNSt3__113basic_ostreamIcNS2_11char_traitsIcEEEE
_ZTVN3art2gc5space10ImageSpaceE
_ZN3art11InternTable5Table4FindERKNS0_10Utf8StringEj
_ZN3art16WellKnownClasses29java_lang_Thread_systemDaemonE
_ZN3art9BaseMutex15CheckSafeToWaitEPNS_6ThreadE
_ZN3art16WellKnownClasses23java_nio_Buffer_addressE
_ZN3art11ClassLinker24PerformClassVerificationEPNS_6ThreadEPNS_8verifier12VerifierDepsENS_6HandleINS_6mirror5ClassEEENS3_15HardFailLogModeEPNSt3__112basic_stringIcNSB_11char_traitsIcEENSB_9allocatorIcEEEE
_ZN3art2gc9collector9MarkSweep27IsNullOrMarkedHeapReferenceEPNS_6mirror13HeapReferenceINS3_6ObjectEEEb
_ZN3art18RuntimeArgumentMap25EnableHSpaceCompactForOOME
_ZN3art6mirror9Throwable18IsCheckedExceptionEv
_ZN3art30register_dalvik_system_DexFileEP7_JNIEnv
artAllocObjectFromCodeInitializedRegion
artAllocObjectFromCodeWithChecksRegionTLAB
DlmallocBytesAllocatedCallback
_ZN3art3jni12JniIdManager13EncodeFieldIdEPNS_8ArtFieldE
_ZNK3art12StackVisitor20GetCurrentInlineInfoEv
artInvokePolymorphic
_ZN3art6mirror18EmulatedStackFrame14SetReturnValueEPNS_6ThreadERKNS_6JValueE
_ZN3art9OatHeader19SetBcpBssInfoOffsetEj
_ZNK3art9OatHeader35GetQuickImtConflictTrampolineOffsetEv
_ZN3art9OatHeader24SetNterpTrampolineOffsetEj
_ZN3art18RuntimeArgumentMap12BackgroundGcE
_ZN3art11annotations25IsMethodAnnotationPresentEPNS_9ArtMethodENS_6HandleINS_6mirror5ClassEEEj
_ZN3art6HandleINS_6mirror11ObjectArrayINS1_5ClassEEEE10GetFromGdbEv
_ZN3art5MutexD0Ev
_ZN3com7android3art9Component4readEPN8tinyxml210XMLElementE
_ZN3art7Runtime19RecordResolveStringENS_6ObjPtrINS_6mirror8DexCacheEEENS_3dex11StringIndexE
_ZN3art11interpreter16UnstartedRuntime36UnstartedJdkUnsafeCompareAndSwapLongEPNS_6ThreadEPNS_11ShadowFrameEPNS_6JValueEm
_ZN3art7Monitor4WaitEPNS_6ThreadENS_6ObjPtrINS_6mirror6ObjectEEElibNS_11ThreadStateE
_ZN3art18RuntimeArgumentMap17ForceNativeBridgeE
_ZN3art17GetSignalCodeNameEii
_ZN3art2gc9collector17ConcurrentCopying15FlipThreadRootsEv
_ZN3art7Runtime28RegisterRuntimeNativeMethodsEP7_JNIEnv
_ZN3art9hiddenapi6detail15MemberSignatureC2EPNS_9ArtMethodE
_ZN3art9JNIEnvExt18RecordMonitorEnterEP8_jobject
_ZN3art16OatFileAssistant30ValidateBootClassPathChecksumsEPNS_23OatFileAssistantContextENS_14InstructionSetENSt3__117basic_string_viewIcNS4_11char_traitsIcEEEES8_PNS4_12basic_stringIcS7_NS4_9allocatorIcEEEE
_ZN3art35InvokeVirtualOrInterfaceWithVarArgsIPNS_9ArtMethodEEENS_6JValueERKNS_33ScopedObjectAccessAlreadyRunnableEP8_jobjectT_St9__va_list
_ZN3art16RuntimeCallbacks13StartDebuggerEv
_ZNK3art11ClassLinker26DenyAccessBasedOnPublicSdkEPKc
_ZTVN3art3jit14JitCompileTaskE
_ZN3art16OatFileAssistant11HasDexFilesEPNSt3__112basic_stringIcNS1_11char_traitsIcEENS1_9allocatorIcEEEE
_ZN3art7Runtime18EnsurePluginLoadedEPKcPNSt3__112basic_stringIcNS3_11char_traitsIcEENS3_9allocatorIcEEEE
_ZNK3art7Runtime29IsActiveStrictTransactionModeEv
_ZN3art15MemMapArenaPool8TrimMapsEv
_ZNK3art11ClassLinker16NumZygoteClassesEv
_ZN3art2gc9allocator8RosAlloc34AssertAllThreadLocalRunsAreRevokedEv
_ZTVN3art12FunctionTaskE
_ZN3art12ProfileSaverD2Ev
_ZN3art8verifier14MethodVerifier4FailENS0_11VerifyErrorEb
_ZNK3com7android3art9CacheInfo20getCompilationOsModeEv
_ZN3art16WellKnownClasses32java_lang_reflect_Parameter_initE
mspace_footprint_limit
_ZN3art2gc5space11RegionSpace13FromSpaceSizeEv
_ZN3art8verifier21PcToRegisterLineTableD1Ev
artAllocObjectFromCodeResolvedTLABInstrumented
_ZN3art9hiddenapi24ShouldDenyAccessToMemberINS_8ArtFieldEEEbPT_RKNSt3__18functionIFNS0_13AccessContextEvEEENS0_12AccessMethodE
_ZN3art9JNIEnvExt19CheckMonitorReleaseEP8_jobject
_ZN3art16OatFileAssistant11OatFileInfo24ShouldRecompileForFilterENS_14CompilerFilter6FilterENS0_13DexOptTriggerE
_ZN3art2gc9collector11MarkCompact19MarkConcurrentRootsENS_14VisitRootFlagsEPNS_7RuntimeE
_ZN3art2gc9collector15StickyMarkSweepC2EPNS0_4HeapEbRKNSt3__112basic_stringIcNS5_11char_traitsIcEENS5_9allocatorIcEEEE
_ZN3art15instrumentation15Instrumentation13InterpretOnlyEPNS_9ArtMethodE
_ZN3art13DlOpenOatFile8PreSetupERKNSt3__112basic_stringIcNS1_11char_traitsIcEENS1_9allocatorIcEEEE
_ZN3art8VdexFile13OpenAtAddressEPhmbimRKNSt3__112basic_stringIcNS2_11char_traitsIcEENS2_9allocatorIcEEEEbbPS8_
_ZN3art15instrumentation15Instrumentation16EntryPointStringEPKv
_ZN3art6mirror14PrimitiveArrayItE3SetEit
_ZN3art6Thread22VisitReflectiveTargetsEPNS_22ReflectiveValueVisitorE
_ZNK3com7android3art16KeyValuePairList7hasItemEv
_ZN3art9ArtMethod15EqualParametersENS_6HandleINS_6mirror11ObjectArrayINS2_5ClassEEEEE
_ZN3art16WellKnownClasses30java_lang_reflect_Proxy_invokeE
_ZNK3art18ClassLoaderContext23EncodeContextForOatFileERKNSt3__112basic_stringIcNS1_11char_traitsIcEENS1_9allocatorIcEEEEPS0_
_ZN3art11annotations22GetAnnotationForMethodEPNS_9ArtMethodENS_6HandleINS_6mirror5ClassEEE
_ZN3art2gc5space16BumpPointerSpace24AllocationSizeNonvirtualEPNS_6mirror6ObjectEPm
_ZTVN3art21RuntimeArgumentMapKeyIPFiP7__sFILEPKcSt9__va_listEEE
_ZN3art17FindFieldFromCodeILNS_13FindFieldTypeE26EEEPNS_8ArtFieldEjPNS_9ArtMethodEPNS_6ThreadEb
_ZN3art11ClassLinker9LoadClassEPNS_6ThreadERKNS_7DexFileERKNS_3dex8ClassDefENS_6HandleINS_6mirror5ClassEEE
_ZNK3art2gc10accounting11SpaceBitmapILm4096EE19FindPrecedingObjectEmm
_ZN3art2gc4Heap21SetAllocationListenerEPNS0_18AllocationListenerE
_ZN3art14OatFileManager19OpenDexFilesFromOatEPKcP8_jobjectP13_jobjectArrayPPKNS_7OatFileEPNSt3__16vectorINSB_12basic_stringIcNSB_11char_traitsIcEENSB_9allocatorIcEEEENSG_ISI_EEEE
_ZTVN3art6detail20CmdlineParseArgumentINS_6MemoryILm1024EEEEE
_ZN3art2gc10accounting11SpaceBitmapILm8EE6CreateERKNSt3__112basic_stringIcNS4_11char_traitsIcEENS4_9allocatorIcEEEEPhm
_ZN3art3jit12JitCodeCache7ReserveEPNS_6ThreadEPNS0_15JitMemoryRegionEmmmPNS_9ArtMethodEPNS_8ArrayRefIKhEESB_
_ZN3art16WellKnownClasses24java_nio_Buffer_isDirectE
_ZN3art18RuntimeArgumentMap11MethodTraceE
_ZN3art16WellKnownClasses21HandleJniIdTypeChangeEP7_JNIEnv
_ZN3art30GetFaultMessageForAbortLoggingEv
_ZN3art10ThreadPool11StopWorkersEPNS_6ThreadE
_ZN3art10OatDexFileD1Ev
_ZN3art7metrics15MetricsReporterD1Ev
_ZN3art16OatFileAssistant23GetRequiredDexChecksumsEPNSt3__112basic_stringIcNS1_11char_traitsIcEENS1_9allocatorIcEEEE
_ZN3art31ThrowNegativeArraySizeExceptionEi
_ZN3art2gc5space13FreeListSpaceD2Ev
_ZN3art6HandleINS_6mirror21ArrayElementVarHandleEE13ObjectFromGdbEv
artAllocArrayFromCodeResolvedDlMalloc
_ZN3art15instrumentation15Instrumentation14ConfigureStubsEPKcNS1_20InstrumentationLevelE
_ZN3art6Thread8ShutdownEv
_ZN3art10old_actionE
_ZN3art9ArtMethod22IsSignaturePolymorphicEv
_ZN3art2gc9collector9MarkSweep24ProcessMarkStackParallelEm
_ZN3art6mirror5Class15SetStatusLockedENS_11ClassStatusE
_ZTVNSt3__120__shared_ptr_emplaceIPFvvENS_9allocatorIS2_EEEE
CpuFeatures_StringView_StartsWith
_ZN3art2gc9collectorlsERNSt3__113basic_ostreamIcNS2_11char_traitsIcEEEENS1_6GcTypeE
_ZN3art39ThrowNullPointerExceptionForFieldAccessEPNS_8ArtFieldEPNS_9ArtMethodEb
_ZN3art2gc9collector11MarkCompact25MapUpdatedLinearAllocPageEPhS3_RNS_6AtomicINS2_9PageStateEEEb
_ZN3art2gc4Heap16ClearGrowthLimitEv
_ZN3art6mirror14PrimitiveArrayIaE16GetWithoutChecksEi
_ZN3art2tilsERNSt3__113basic_ostreamIcNS1_11char_traitsIcEEEERKNS0_9AgentSpecE
CpuFeatures_StringView_IndexOf
_ZNK3art18ClassLoaderContext29VerifyClassLoaderContextMatchERKNSt3__112basic_stringIcNS1_11char_traitsIcEENS1_9allocatorIcEEEEbb
_ZNK3art7Runtime25GetHashTableMaxLoadFactorEv
_ZN3art40ThrowNullPointerExceptionForMethodAccessEjNS_10InvokeTypeE
_ZN3art18RuntimeArgumentMap22NonMovingSpaceCapacityE
_ZN3art29Riscv64InstructionSetFeatures11FromCpuInfoEv
_ZN3art2gc10accounting10HeapBitmap24AddContinuousSpaceBitmapEPNS1_11SpaceBitmapILm8EEE
_ZN3art2gc10accounting11SpaceBitmapILm4096EE17ComputeBitmapSizeEm
_ZN3art16WellKnownClasses21java_nio_Buffer_limitE
_ZN3art15instrumentation15Instrumentation33GetMaybeInstrumentedCodeForInvokeEPNS_9ArtMethodE
_ZN3artlsERNSt3__113basic_ostreamIcNS0_11char_traitsIcEEEENS_9JniIdTypeE
_ZN3art8verifier10LongLoType7DestroyEv
_ZN3art8verifier20UnresolvedMergedTypeC1ERKNS0_7RegTypeERKNS_9BitVectorEPKNS0_12RegTypeCacheEt
_ZN3art5Locks17heap_bitmap_lock_E
_ZN3art11ClassLinker28FixupTemporaryDeclaringClassENS_6ObjPtrINS_6mirror5ClassEEES4_
_ZN3art10ClassTable11AddClassSetEONS_7HashSetINS0_9TableSlotENS0_16TableSlotEmptyFnENS0_19ClassDescriptorHashENS0_21ClassDescriptorEqualsENS_20GcRootArenaAllocatorIS2_LNS_12AllocatorTagE2EEEEE
_ZN3art10ThreadList7ForEachEPFvPNS_6ThreadEPvES3_
_ZN3art11interpreter16UnstartedRuntime26UnstartedSystemGetPropertyEPNS_6ThreadEPNS_11ShadowFrameEPNS_6JValueEm
art_f2i
_ZN3art15FindInClassPathEPKcmRKNSt3__16vectorIPKNS_7DexFileENS2_9allocatorIS6_EEEE
_ZN3art6mirror19MethodHandlesLookup6CreateEPNS_6ThreadENS_6HandleINS0_5ClassEEE
_ZN3art3jit3Jit25MaybeDoOnStackReplacementEPNS_6ThreadEPNS_9ArtMethodEjiPNS_6JValueE
_ZN3art10ObjectLockINS_6mirror6ObjectEE9NotifyAllEv
_ZThn296_N3art2gc5space13FreeListSpace14AllocationSizeEPNS_6mirror6ObjectEPm
_ZN3art11Transaction9ObjectLog12LogByteValueENS_12MemberOffsetEab
art_f2l
_ZN3art16WellKnownClasses28dalvik_system_DexFile_cookieE
artSetShortStaticFromCode
_ZTVN3art12MutatorMutexE
_ZN3art15MemMapArenaPoolC1EbPKc
_ZN3art2gc9collector11MarkCompact19MarkRootsCheckpointEPNS_6ThreadEPNS_7RuntimeE
_ZNSt3__114__thread_proxyINS_5tupleIJNS_10unique_ptrINS_15__thread_structENS_14default_deleteIS3_EEEEMN3art7metrics15MetricsReporterEFvvEPS9_EEEEEPvSE_
_ZTVN3art8IndenterE
_ZN3art8CodeInfoC1EPKhPm
_ZN3art16WellKnownClasses38java_lang_ThreadGroup_threadTerminatedE
_ZNK3art8verifier30UninitializedThisReferenceType15CheckInvariantsEv
artAllocObjectFromCodeResolvedDlMallocInstrumented
_ZN3art3Dbg26DbgThreadLifecycleCallback11ThreadDeathEPNS_6ThreadE
_ZNK3art9ExecUtils17ExecAndReturnCodeERKNSt3__16vectorINS1_12basic_stringIcNS1_11char_traitsIcEENS1_9allocatorIcEEEENS6_IS8_EEEEPS8_
_ZNK3art20OatQuickMethodHeader7ToDexPcEPPNS_9ArtMethodEmb
_ZNK3art11ElfFileImplINS_10ElfTypes32EE18CheckSectionsExistEPN9unix_file6FdFileEPNSt3__112basic_stringIcNS6_11char_traitsIcEENS6_9allocatorIcEEEE
_ZN3artlsERNSt3__113basic_ostreamIcNS0_11char_traitsIcEEEERKNS_6OffsetE
_ZN3art3jit3Jit26DumpTypeInfoForLoadedTypesEPNS_11ClassLinkerE
_ZNK3com7android4apex8ApexInfo13hasModulePathEv
_ZN3art9ArtMethod23HasSameNameAndSignatureEPS0_
_ZN3art6mirror9VarHandle21GetAccessModeTemplateENS1_10AccessModeE
_ZNK3art8verifier12VerifierDeps6EncodeERKNSt3__16vectorIPKNS_7DexFileENS2_9allocatorIS6_EEEEPNS3_IhNS7_IhEEEE
_ZN3art11annotations21GetAnnotationForFieldEPNS_8ArtFieldENS_6HandleINS_6mirror5ClassEEE
_ZN3art2gc9collector16GarbageCollector11SwapBitmapsEv
_ZThn136_N3art2gc5space13RosAllocSpaceD1Ev
_ZN3art3jit3Jit14PostZygoteForkEv
_ZN3art22ClassHierarchyAnalysis20UpdateAfterLoadingOfENS_6HandleINS_6mirror5ClassEEE
_ZNK3art2gc4Heap20FindSpaceFromAddressEPKv
_ZTVN3art3jit10ZygoteTaskE
_ZN3art7Monitor16GetOwnerThreadIdEv
_ZNK3art12TimingLogger10GetTotalNsEv
_ZN3art7Runtime17CreateLinearAllocEv
_ZN3art2gc5space11RegionSpace12AllocNewTlabEPNS_6ThreadEmPm
_ZN3art8verifier12RegTypeCache15FromCat2ConstLoEib
_ZN3art11ClassLinker10AllocClassILb1EEENS_6ObjPtrINS_6mirror5ClassEEEPNS_6ThreadES5_j
_ZN3art10OatDexFile12FindClassDefERKNS_7DexFileEPKcm
_ZNK3art6Thread24StateAndFlagsAsHexStringEv
_ZN3art22ScopedExceptionStorageD2Ev
_ZN3art7Barrier8GetCountEPNS_6ThreadE
_ZN3art2gc9collector17ConcurrentCopying19CheckEmptyMarkStackEv
_ZN3art21QuickExceptionHandler10DoLongJumpEb
_ZN3art2gc9allocator8RosAlloc31AssertThreadLocalRunsAreRevokedEPNS_6ThreadE
_ZNK3art2gc4Heap10GetGcCountEv
_ZN3art3jit12JitCodeCache21GetGarbageCollectCodeEv
_ZNK3art7Runtime22IsSystemServerProfiledEv
_ZN3art13FindAddr2lineEv
_ZN3art16RuntimeCallbacks23AddRuntimePhaseCallbackEPNS_20RuntimePhaseCallbackE
artSetShortStaticFromCompiledCode
_ZN3art11interpreter27DoVarHandleGetAndSetAcquireEPNS_6ThreadERNS_11ShadowFrameEPKNS_11InstructionEtPNS_6JValueE
_ZN3art35InvokeVirtualOrInterfaceWithVarArgsIP10_jmethodIDEENS_6JValueERKNS_33ScopedObjectAccessAlreadyRunnableEP8_jobjectT_St9__va_list
_ZN3art7Monitor4LockILNS_10LockReasonE0EEEvPNS_6ThreadE
_ZN3art9OatHeader19SetExecutableOffsetEj
_ZNK3art2gc10accounting17MemoryRangeBitmapILm8EE10CoverBeginEv
_ZN3art3jit9ZygoteMap3PutEPKvPNS_9ArtMethodE
_ZN3art7Runtime11GetSentinelEv
_ZTVNSt3__120__shared_ptr_emplaceIdNS_9allocatorIdEEEE
_ZN3art11ClassLinker18LookupResolvedTypeEPKcNS_6ObjPtrINS_6mirror11ClassLoaderEEE
_ZN3art2gc10accounting27ModUnionTableReferenceCache10ClearTableEv
_ZN3art9JavaVMExt18SetCheckJniEnabledEb
_ZN3art6Thread4InitEPNS_10ThreadListEPNS_9JavaVMExtEPNS_9JNIEnvExtE
_ZN3art11annotations31GetAnnotationForMethodParameterEPNS_9ArtMethodEjNS_6HandleINS_6mirror5ClassEEE
_ZN3art3jit12JitCodeCache24AddProfilingInfoInternalEPNS_6ThreadEPNS_9ArtMethodERKNSt3__16vectorIjNS6_9allocatorIjEEEE
_ZN3art3jni34ScopedEnableSuspendAllJniIdQueriesC2Ev
_ZTVN3art13VariantMapKeyINS_12JdwpProviderEEE
artGetShortInstanceFromCompiledCode
_ZN3art11annotations30MethodContainsRSensitiveAccessERKNS_7DexFileERKNS_3dex8ClassDefEj
_ZN3art2gc9collector11MarkCompact17SweepLargeObjectsEb
_ZNK3art2gc5space19LargeObjectMapSpace19IsZygoteLargeObjectEPNS_6ThreadEPNS_6mirror6ObjectE
_ZN3art12TrackedArenaC1EPhmbb
mspace_free
_ZN3art6HandleINS_6mirror5ClassEE10GetFromGdbEv
_ZN3art9JavaVMExt19IsWeakGlobalClearedEPNS_6ThreadEPv
_ZN3art11MonitorInfoC1ENS_6ObjPtrINS_6mirror6ObjectEEE
_ZTVN3art2gc4Heap12HeapTrimTaskE
_ZN3art11interpreter20DoVarHandleSetOpaqueEPNS_6ThreadERNS_11ShadowFrameEPKNS_11InstructionEtPNS_6JValueE
_ZN3art18NullPointerHandler13IsValidMethodEPNS_9ArtMethodE
_ZN3art2gc10accounting11SpaceBitmapILm4096EED2Ev
_ZN3art11interpreter16UnstartedRuntime40UnstartedStringFactoryNewStringFromBytesEPNS_6ThreadEPNS_11ShadowFrameEPNS_6JValueEm
_ZN3art7metrics15MetricsReporter25MaybeStopBackgroundThreadEv
_ZN3art16RuntimeCallbacks26RemoveRuntimePhaseCallbackEPNS_20RuntimePhaseCallbackE
_ZN3art16RuntimeCallbacks34RemoveReflectiveValueVisitCallbackEPNS_28ReflectiveValueVisitCallbackE
_ZN3art5arm64lsERNSt3__113basic_ostreamIcNS1_11char_traitsIcEEEERKNS0_9SRegisterE
_ZN3art2gc9collector11MarkCompact15InitializePhaseEv
_ZN3art2gc9collector11MarkCompact33UpdateMovingSpaceBlackAllocationsEv
_ZN3art11interpreter16UnstartedRuntime24UnstartedMemoryPeekShortEPNS_6ThreadEPNS_11ShadowFrameEPNS_6JValueEm
_ZNK3art3jit3Jit14CanEncodeClassENS_6ObjPtrINS_6mirror5ClassEEEb
_ZN3art10ThreadList13AllocThreadIdEPNS_6ThreadE
_ZN3artlsERNSt3__113basic_ostreamIcNS0_11char_traitsIcEEEENS_12StackVisitor13StackWalkKindE
_ZNK3art9BaseMutex14DumpContentionERNSt3__113basic_ostreamIcNS1_11char_traitsIcEEEE
_ZN3art11ElfFileImplINS_10ElfTypes64EE14GetSymbolTableEj
_ZN3art8verifier20PreciseReferenceTypeC1ENS_6ObjPtrINS_6mirror5ClassEEERKNSt3__117basic_string_viewIcNS6_11char_traitsIcEEEEt
_ZN3art22InstructionSetFeatures19FromVariantAndHwcapENS_14InstructionSetERKNSt3__112basic_stringIcNS2_11char_traitsIcEENS2_9allocatorIcEEEEPS8_
_ZN3art12ProfileSaverC1ERKNS_19ProfileSaverOptionsEPNS_3jit12JitCodeCacheE
_ZN3art7Monitor36stack_dump_lock_profiling_threshold_E
_ZN3art14AotClassLinker15InitializeClassEPNS_6ThreadENS_6HandleINS_6mirror5ClassEEEbb
_ZN3art6Thread12SetCustomTLSEPKcPNS_7TLSDataE
_ZThn8_N3art2gc9collector17ConcurrentCopyingD1Ev
_ZN3art2gc18ReferenceProcessor17ProcessReferencesEPNS_6ThreadEPNS_12TimingLoggerE
_ZN3art2gc4Heap35PushOnAllocationStackWithInternalGCEPNS_6ThreadEPNS_6ObjPtrINS_6mirror6ObjectEEE
_ZN3art7metrics15MetricsReporter20NotifyAppInfoUpdatedEPNS_7AppInfoE
_ZN3art39GetCalleeSaveMethodCallerAndOuterMethodEPNS_6ThreadENS_14CalleeSaveTypeE
_ZN3art2gc9collector15StickyMarkSweep11BindBitmapsEv
_ZN3art8verifier12VerifierDeps15GetIdFromStringERKNS_7DexFileERKNSt3__112basic_stringIcNS5_11char_traitsIcEENS5_9allocatorIcEEEE
_ZN3art21ThrowRuntimeExceptionEPKcz
_ZN3art2gc10accounting6Bitmap5ClearEv
_ZN3art2gc5space19LargeObjectMapSpaceC2ERKNSt3__112basic_stringIcNS3_11char_traitsIcEENS3_9allocatorIcEEEE
_ZN3art25PreZygoteForkNativeBridgeEv
_ZN3art16RuntimeCallbacks31AddReflectiveValueVisitCallbackEPNS_28ReflectiveValueVisitCallbackE
_ZNK3com7android3art16KeyValuePairList7getItemEv
_ZN3art7metrics15MetricsReporter26MaybeStartBackgroundThreadENS0_11SessionDataE
_ZTVN3art29UpdateEntryPointsClassVisitorE
_ZN3art18ClassLoaderContext27CreateContextForClassLoaderEP8_jobjectP13_jobjectArray
_ZN3art18ClassLoaderContextC1Eb
_ZN3art2gc10accounting11SpaceBitmapILm4096EE9SweepWalkERKS3_S5_mmPFvmPPNS_6mirror6ObjectEPvESA_
_ZN3art2gclsERNSt3__113basic_ostreamIcNS1_11char_traitsIcEEEENS0_13CollectorTypeE
_ZN3art11interpreter34DoVarHandleGetAndBitwiseAndReleaseEPNS_6ThreadERNS_11ShadowFrameEPKNS_11InstructionEtPNS_6JValueE
_ZN3art6mirror6String21AllocFromModifiedUtf8EPNS_6ThreadEiPKc
_ZN3art23OatFileAssistantContextC1EPNS_7RuntimeE
_ZN3art2gc5space16BumpPointerSpace13SetBlockSizesEPNS_6ThreadEmm
_ZN3art2gc9collector9MarkSweep25RecursiveMarkDirtyObjectsEbh
_ZNK3art2gc4Heap9GetGcTimeEv
_ZN3art11interpreter16UnstartedRuntime27UnstartedJNIUnsafePutObjectEPNS_6ThreadEPNS_9ArtMethodEPNS_6mirror6ObjectEPjPNS_6JValueE
_ZN3art8verifier21PcToRegisterLineTableC2ERNS_20ScopedArenaAllocatorE
_ZN3art6HandleINS_6mirror22ByteArrayViewVarHandleEE10GetFromGdbEv
_ZTVN3art3jit27JitDoneCompilingProfileTaskE
_ZTVNSt3__120__shared_ptr_emplaceIN3art16TraceClockSourceENS_9allocatorIS2_EEEE
_ZN3art16WellKnownClasses41org_apache_harmony_dalvik_ddmc_Chunk_dataE
_ZTVN3art2gc9collector17ConcurrentCopying28DisableWeakRefAccessCallbackE
_ZN3art11Transaction17LogInternedStringEONS0_15InternStringLogE
_ZN3art5Locks9jit_lock_E
_ZN3art11ClassLinker15VisitClassRootsEPNS_11RootVisitorENS_14VisitRootFlagsE
_ZN3art6HandleINS_6mirror20StaticFieldVarHandleEE13ObjectFromGdbEv
_ZN3art9JavaVMExt26BroadcastForNewWeakGlobalsEv
_ZN3art12StackVisitor9WalkStackILNS0_16CountTransitionsE1EEEvb
_ZN3art11ClassLinker20AddExtraBootDexFilesEPNS_6ThreadEONSt3__16vectorINS3_10unique_ptrIKNS_7DexFileENS3_14default_deleteIS7_EEEENS3_9allocatorISA_EEEE
_ZN3art15instrumentation15Instrumentation37InstrumentQuickAllocEntryPointsLockedEv
_ZN3art3jit12JitCodeCache19NotifyCompilationOfEPNS_9ArtMethodEPNS_6ThreadENS_15CompilationKindEb
_ZN3art7Monitor10FetchStateEPKNS_6ThreadEPNS_6ObjPtrINS_6mirror6ObjectEEEPj
_ZZN3art6detail29VariantMapKeyCounterAllocator15AllocateCounterEvE7counter
_ZN3art2gc9collector17ConcurrentCopying12MarkingPhaseEv
_ZN3art3jni12JniIdManager13EncodeFieldIdENS_16ReflectiveHandleINS_8ArtFieldEEE
_ZNK3art17ReaderWriterMutex12IsSharedHeldEPKNS_6ThreadE
_ZN3art2gc9collector9SemiSpace12MarkingPhaseEv
_ZNK3art11ImageHeader8GetMagicEv
_ZN3art16CumulativeLoggerD2Ev
_ZN3art16WellKnownClasses4InitEP7_JNIEnv
_ZN3art11interpreter16UnstartedRuntime29UnstartedCharacterToLowerCaseEPNS_6ThreadEPNS_11ShadowFrameEPNS_6JValueEm
_ZN3art6Thread12SetExceptionENS_6ObjPtrINS_6mirror9ThrowableEEE
_ZN3art2gc5space10ImageSpaceC2ERKNSt3__112basic_stringIcNS3_11char_traitsIcEENS3_9allocatorIcEEEEPKcRKNS3_6vectorIS9_NS7_IS9_EEEEONS_6MemMapEONS0_10accounting11SpaceBitmapILm8EEEPh
_ZN3art25ThrowNoSuchFieldExceptionENS_6ObjPtrINS_6mirror5ClassEEENSt3__117basic_string_viewIcNS4_11char_traitsIcEEEE
__dex_debug_register_code
_ZN3art16WellKnownClasses24InitFieldsAndMethodsOnlyEP7_JNIEnv
_ZNK3art22InstructionSetFeatures27AsX86InstructionSetFeaturesEv
artReadBarrierForRootSlow
_ZNK3art11ElfFileImplINS_10ElfTypes64EE19GetRelaSectionStartER10elf64_shdr
_ZN3art6mirror14PrimitiveArrayItE7GetDataEv
_ZN3art6mirror14PrimitiveArrayIfE6MemcpyEiNS_6ObjPtrIS2_EEii
_ZN3art9OatHeaderC1ENS_14InstructionSetEPKNS_22InstructionSetFeaturesEjPKNS_7SafeMapINSt3__112basic_stringIcNS6_11char_traitsIcEENS6_9allocatorIcEEEESC_NS6_4lessISC_EENSA_INS6_4pairIKSC_SC_EEEEEE
_ZN3art18RuntimeArgumentMap20AlwaysLogExplicitGcsE
_ZTVN3art13VariantMapKeyIPFbvEEE
_ZN3art6x86_64lsERNSt3__113basic_ostreamIcNS1_11char_traitsIcEEEERKNS0_13FloatRegisterE
_ZNK3com7android3art14ModuleInfoList13hasModuleInfoEv
_ZNK3com7android3art10ModuleInfo14hasVersionCodeEv
_ZN3art5Mutex28ExclusiveTryLockWithSpinningEPNS_6ThreadE
_ZNK3art11ElfFileImplINS_10ElfTypes32EE3EndEv
_ZNK3art2gc10accounting17MemoryRangeBitmapILm1024EE10CoverBeginEv
_ZN3art9JavaVMExt30DecodeWeakGlobalDuringShutdownEPNS_6ThreadEPv
_ZNK3art7ElfFile3EndEv
_ZN3art2gc9collector11MarkCompact12MarkingPauseEv
_ZN3art11InternTable10LookupWeakEPNS_6ThreadENS_6ObjPtrINS_6mirror6StringEEE
_ZN3art12ProfileSaver20ProcessProfilingInfoEbbPt
_ZN3art16ThrowVerifyErrorENS_6ObjPtrINS_6mirror5ClassEEEPKcz
_ZN3art7Runtime18RecordWriteField32EPNS_6mirror6ObjectENS_12MemberOffsetEjb
_ZN3art16WellKnownClasses30dalvik_system_DexFile_fileNameE
_ZN3art11ElfFileImplINS_10ElfTypes32EE19IsSymbolSectionTypeEj
_ZNK3art7OatFile8DexBeginEv
_ZN3art6mirror5Class11PrettyClassENS_6ObjPtrIS1_EE
_ZN3art7ElfFileC2EPNS_11ElfFileImplINS_10ElfTypes32EEE
_ZN3art7Monitor23SetLockingMethodNoProxyEPNS_6ThreadE
_ZN3art9OatHeader34SetQuickGenericJniTrampolineOffsetEj
_ZN3art6mirror5Class9SetStatusENS_6HandleIS1_EENS_11ClassStatusEPNS_6ThreadE
_ZN3art2gc9collector17ConcurrentCopying22MarkZygoteLargeObjectsEv
_ZN3art2gc4Heap26DecrementDisableThreadFlipEPNS_6ThreadE
_ZTVN3art21RuntimeArgumentMapKeyINS_18BackgroundGcOptionEEE
_ZN3art16WellKnownClasses53dalvik_system_BaseDexClassLoader_sharedLibraryLoadersE
_ZTVN3art2gc9collector17ConcurrentCopying22DisableMarkingCallbackE
_ZN3art6mirror5Class16GetObsoleteClassEv
_ZN3art2gc10accounting27ModUnionTableReferenceCache6VerifyEv
_ZN3art16RuntimeCallbacks19MonitorWaitFinishedEPNS_7MonitorEb
_ZN3art18RuntimeArgumentMap21BootClassPathImageFdsE
_ZN3art13SignalCatcher10ShouldHaltEv
_ZTVN3art8verifier20ImpreciseConstHiTypeE
_ZN3art18ClassLoaderContextC1Ev
_ZN3art11interpreter16UnstartedRuntime29UnstartedCharacterToUpperCaseEPNS_6ThreadEPNS_11ShadowFrameEPNS_6JValueEm
_ZN3art6mirror6Object24GenerateIdentityHashCodeEv
_ZN3art13ObjectTryLockINS_6mirror6ObjectEED2Ev
_ZN3art18RuntimeArgumentMap11ShowVersionE
_ZN3art11MonitorPoolC1Ev
_ZN3art13SignalCatcher13HandleSigQuitEv
_ZN3artlsERNSt3__113basic_ostreamIcNS0_11char_traitsIcEEEENS_14CalleeSaveTypeE
_ZN3art11interpreter16UnstartedRuntime28UnstartedMemoryPeekByteArrayEPNS_6ThreadEPNS_11ShadowFrameEPNS_6JValueEm
artAllocStringFromStringFromCodeDlMalloc
_ZN3art14AotClassLinkerD0Ev
_ZN3art16WellKnownClasses43libcore_util_EmptyArray_STACK_TRACE_ELEMENTE
_ZN3art2gc5space13RosAllocSpaceD0Ev
_ZN3art6mirror14PrimitiveArrayIfE5AllocEPNS_6ThreadEm
_ZN3art6mirror6String8DoRepeatEPNS_6ThreadENS_6HandleIS1_EEi
_ZN3art6mirror9VarHandle10GetVarTypeEv
_ZN3art11Transaction9ObjectLog15LogBooleanValueENS_12MemberOffsetEhb
_ZN3art25X86InstructionSetFeatures12FromAssemblyEb
artAllocArrayFromCodeResolvedDlMallocInstrumented
_ZN3art17ConditionVariableC2EPKcRNS_5MutexE
_ZNK3art22ClassHierarchyAnalysis36ResetSingleImplementationInHierarchyENS_6ObjPtrINS_6mirror5ClassEEEPKNS_11LinearAllocENS_11PointerSizeE
_ZN3art2gc5space16BumpPointerSpace30RevokeThreadLocalBuffersLockedEPNS_6ThreadE
_ZNK3art9OatHeader13GetHeaderSizeEv
_ZNK3art11ElfFileImplINS_10ElfTypes32EE18GetRelSectionStartER10elf32_shdr
_ZN3art5Mutex16ExclusiveTryLockEPNS_6ThreadE
_ZN3art11interpreter16UnstartedRuntime32UnstartedJNIJdkUnsafeAddressSizeEPNS_6ThreadEPNS_9ArtMethodEPNS_6mirror6ObjectEPjPNS_6JValueE
_ZNK3art9OatHeader12IsDebuggableEv
_ZNK3com7android3art9CacheInfo17getModuleInfoListEv
_ZN3art2gc4Heap30SetDefaultConcurrentStartBytesEv
_ZN3art6HandleINS_6mirror12MethodHandleEE13ObjectFromGdbEv
_ZNSt3__110__function6__funcIPFbRKNS_12basic_stringIcNS_11char_traitsIcEENS_9allocatorIcEEEEjENS5_ISB_EESA_E7destroyEv
_ZNK3art8verifier16PreciseConstType4DumpEv
_ZN3art22InstructionSetFeatures18FindVariantInArrayEPKPKcmRKNSt3__112basic_stringIcNS5_11char_traitsIcEENS5_9allocatorIcEEEE
artSetCharInstanceFromCode
_ZTVN3art2gc5space29MemoryToolLargeObjectMapSpaceE
_ZTVN3art2gc4Heap23TriggerPostForkCCGcTaskE
_ZN3art8verifier12VerifierDeps15ParseStoredDataERKNSt3__16vectorIPKNS_7DexFileENS2_9allocatorIS6_EEEENS_8ArrayRefIKhEE
_ZNK3art22InstructionSetFeatures27AsArmInstructionSetFeaturesEv
artImplicitSuspendFromCode
_ZN3art2gc5space16BumpPointerSpace6CreateERKNSt3__112basic_stringIcNS3_11char_traitsIcEENS3_9allocatorIcEEEEm
_ZN3art13ParsedOptions10MakeParserEb
_ZN3art11ClassLinker10VisitRootsEPNS_11RootVisitorENS_14VisitRootFlagsEb
_ZNK3art2gc4Heap10DumpSpacesERNSt3__113basic_ostreamIcNS2_11char_traitsIcEEEE
_ZN3art6mirror6String9DoReplaceEPNS_6ThreadENS_6HandleIS1_EEtt
_ZN3art3jit15JitMemoryRegion8FreeDataEPKh
_ZNK3art22InstructionSetFeatures21AddFeaturesFromStringERKNSt3__112basic_stringIcNS1_11char_traitsIcEENS1_9allocatorIcEEEEPS7_
_ZN3art9ArtMethod19GetObsoleteDexCacheILNS_17ReadBarrierOptionE1EEENS_6ObjPtrINS_6mirror8DexCacheEEEv
artInvokeDirectTrampolineWithAccessCheck
_ZTVN3art28BuildQuickShadowFrameVisitorE
_ZN3art2gc5spacelsERNSt3__113basic_ostreamIcNS2_11char_traitsIcEEEENS1_11RegionSpace8EvacModeE
_ZN3art9ArtMethod23GetSingleImplementationENS_11PointerSizeE
_ZN3art12AllocIfTableEPNS_6ThreadEmNS_6ObjPtrINS_6mirror5ClassEEE
_ZN3art16WellKnownClasses33dalvik_system_DexClassLoader_initE
_ZN3art21JavaStackTraceHandlerC1EPNS_12FaultManagerE
_ZN3art2gc4Heap10RecordFreeEml
_ZN3art2gc4Heap13PreZygoteForkEv
_ZNK3art11ShadowFrame13GetThisObjectEt
_ZNK3art8verifier12VerifierDeps11DexFileDeps6EqualsERKS2_
_ZN3art2gc5space5Space15AsRosAllocSpaceEv
_ZNK3art3jit12JitCodeCache19IsWeakAccessEnabledEPNS_6ThreadE
_ZNK3art11ShadowFrame13GetThisObjectEv
__jit_debug_register_code
_ZN3art2gc10accounting22ModUnionTableCardCache23UpdateAndMarkReferencesEPNS_17MarkObjectVisitorE
_ZN3art2gc5space13RosAllocSpace17SetFootprintLimitEm
_ZN3art6PluginC1ERKS0_
_ZTVN3art8verifier20PreciseReferenceTypeE
_ZN3art16WellKnownClasses22java_lang_Long_valueOfE
_ZN3art6mirror8ClassExt16SetObsoleteClassENS_6ObjPtrINS0_5ClassEEE
_ZTVN3art20StartupCompletedTaskE
_ZN3art10ThreadList8ShutDownEv
artInvokeObsoleteMethod
_ZN3art15MemMapArenaPool10AllocArenaEm
_ZN3art11ClassLinker19RemoveDexFromCachesERKNS_7DexFileE
_ZN3art11ElfFileImplINS_10ElfTypes32EE5SetupEPN9unix_file6FdFileEiibPNSt3__112basic_stringIcNS6_11char_traitsIcEENS6_9allocatorIcEEEE
_ZNK3art2gc4Heap24DumpGcCountRateHistogramERNSt3__113basic_ostreamIcNS2_11char_traitsIcEEEE
_ZN3art3jni12JniIdManager13DecodeFieldIdEP9_jfieldID
_ZN3art16RuntimeCallbacks20IsDebuggerConfiguredEv
_ZN3art6mirror6String8DoConcatEPNS_6ThreadENS_6HandleIS1_EES5_
_ZN3art11ClassLinker13AddImageSpaceEPNS_2gc5space10ImageSpaceENS_6HandleINS_6mirror11ClassLoaderEEEPNS_18ClassLoaderContextERKNSt3__16vectorINSB_10unique_ptrIKNS_7DexFileENSB_14default_deleteISF_EEEENSB_9allocatorISI_EEEEPNSB_12basic_stringIcNSB_11char_traitsIcEENSJ_IcEEEE
_ZN3art2gc9collector16GarbageCollector11ScopedPauseD1Ev
_ZN3art2gc4Heap21FindCollectorByGcTypeENS0_9collector6GcTypeE
_ZN3art6HandleINS_6mirror12MethodHandleEE10GetFromGdbEv
_ZN3art6mirror14PrimitiveArrayIlE15AllocateAndFillEPNS_6ThreadEPKlm
_ZN3art18RuntimeArgumentMap8CompilerE
_ZN3art6HandleINS_6mirror5ProxyEE10GetFromGdbEv
_ZN3art6Thread12NotifyLockedEPS0_
_ZThn16_N3art2gc9collector9SemiSpace17MarkHeapReferenceEPNS_6mirror13HeapReferenceINS3_6ObjectEEEb
_ZN3art2ti9AgentSpec12DoLoadHelperEP7_JNIEnvbP8_jobjectPiPNS0_9LoadErrorEPNSt3__112basic_stringIcNS9_11char_traitsIcEENS9_9allocatorIcEEEE
_ZN3art8verifier12DoubleHiType14CreateInstanceENS_6ObjPtrINS_6mirror5ClassEEERKNSt3__117basic_string_viewIcNS6_11char_traitsIcEEEEt
_ZN3art11ClassLinker12FindDexCacheEPNS_6ThreadERKNS_10OatDexFileE
_ZN3art2gc4Heap28MapAnonymousPreferredAddressEPKcPhmPNSt3__112basic_stringIcNS5_11char_traitsIcEENS5_9allocatorIcEEEE
_ZN3art16RuntimeCallbacks30RemoveMethodInspectionCallbackEPNS_24MethodInspectionCallbackE
_ZN3art7ElfFileC1EPNS_11ElfFileImplINS_10ElfTypes64EEE
_ZN3art2gc10accounting17MemoryRangeBitmapILm8EE16AtomicTestAndSetEm
_ZN3art26IsParameterTypeConvertibleENS_6ObjPtrINS_6mirror5ClassEEES3_
_ZN3art13FillArrayDataENS_6ObjPtrINS_6mirror6ObjectEEEPKNS_11Instruction16ArrayDataPayloadE
_ZTVN3art13VariantMapKeyINS_9XGcOptionEEE
_ZTVNSt3__120__shared_ptr_emplaceIN3art9hiddenapi17EnforcementPolicyENS_9allocatorIS3_EEEE
_ZNK3art8verifier7RegType18IsObjectArrayTypesEv
_ZNK3art27Arm64InstructionSetFeatures6EqualsEPKNS_22InstructionSetFeaturesE
_ZN3art2gc5space13RosAllocSpace9DumpStatsERNSt3__113basic_ostreamIcNS3_11char_traitsIcEEEE
_ZN3art9JNIEnvExt18ResetFunctionTableEv
_ZN3art22ScopedExceptionStorageC1EPNS_6ThreadE
artGet64InstanceFromCode
_ZNK3com7android3art9Component7hasFileEv
_ZN3art16ScopedSuspendAllD1Ev
_ZN3art22IndirectReferenceTable6RemoveEPv
_ZN3art9BaseMutex7DumpAllERNSt3__113basic_ostreamIcNS1_11char_traitsIcEEEE
_ZN3art11interpreter19DoInvokePolymorphicILb1EEEbPNS_6ThreadERNS_11ShadowFrameEPKNS_11InstructionEtPNS_6JValueE
_ZN3art35InvokeVirtualOrInterfaceWithJValuesIPNS_9ArtMethodEEENS_6JValueERKNS_33ScopedObjectAccessAlreadyRunnableEP8_jobjectT_PK6jvalue
_ZN3art13SignalCatcher13WaitForSignalEPNS_6ThreadERNS_9SignalSetE
_ZN3art5Locks16custom_tls_lock_E
_ZN3art9BaseMutexC2EPKcNS_9LockLevelE
_ZN3art16OatFileAssistant19DexChecksumUpToDateERKNS_7OatFileEPNSt3__112basic_stringIcNS4_11char_traitsIcEENS4_9allocatorIcEEEE
_ZN3art11Transaction23RecordWriteFieldBooleanEPNS_6mirror6ObjectENS_12MemberOffsetEhb
artSetBooleanStaticFromCode
_ZNK3art15instrumentation15Instrumentation19FieldWriteEventImplEPNS_6ThreadENS_6ObjPtrINS_6mirror6ObjectEEEPNS_9ArtMethodEjPNS_8ArtFieldERKNS_6JValueE
_ZN3art22ScopedProfilingInfoUseD2Ev
_ZN3art6Thread10CreatePeerEPKcbP8_jobject
_ZNK3art2gc12Verification14DumpObjectInfoEPKvPKc
_ZN3art3jni12JniIdManager14DecodeMethodIdEP10_jmethodID
_ZN3art6mirror5Class12GetMethodIdsEv
_ZN3art6mirror5Class32ClearDontCompileFlagOnAllMethodsENS_11PointerSizeE
_ZNK3art20OatQuickMethodHeader15ToNativeQuickPcEPNS_9ArtMethodEjb
_ZN3art5Trace10WriteToBufEPhmRKNSt3__112basic_stringIcNS2_11char_traitsIcEENS2_9allocatorIcEEEEPmS1_m
_ZN3art3Dbg21PostThreadStartOrStopEPNS_6ThreadEj
_ZNK3art11ElfFileImplINS_10ElfTypes32EE13GetDynamicNumEv
_ZN3art9JavaVMExt11TrimGlobalsEv
_ZN3art11interpreter16UnstartedRuntime30UnstartedClassGetDeclaredFieldEPNS_6ThreadEPNS_11ShadowFrameEPNS_6JValueEm
_ZN3art7Runtime11EnvSnapshot12TakeSnapshotEv
_ZN3art8verifier12RegTypeCacheD1Ev
artAllocStringObjectRosAlloc
_ZN3art11ClassLinker16LinkFieldsHelper10LinkFieldsEPS0_PNS_6ThreadENS_6HandleINS_6mirror5ClassEEEbPm
_ZN3art2gc9collector17ConcurrentCopyingC1EPNS0_4HeapEbbRKNSt3__112basic_stringIcNS5_11char_traitsIcEENS5_9allocatorIcEEEEb
_ZN3art2gc4Heap18SetGcPauseListenerEPNS0_15GcPauseListenerE
_ZN3art15instrumentation15Instrumentation28MaybeSwitchRuntimeDebugStateEPNS_6ThreadE
_ZN3art10ThreadPool20CheckPthreadPriorityEi
_ZTVN3art8verifier8Cat1TypeE
artThrowArrayBoundsFromCode
_ZN3art9odrefresh16OdrMetricsRecord12ReadFromFileERKNSt3__112basic_stringIcNS2_11char_traitsIcEENS2_9allocatorIcEEEE
_ZNK3art15instrumentation15Instrumentation30GetCurrentInstrumentationLevelEv
_ZN3art11interpreter19DoInvokePolymorphicILb0EEEbPNS_6ThreadERNS_11ShadowFrameEPKNS_11InstructionEtPNS_6JValueE
_ZN3art6mirror14PrimitiveArrayIaE3SetEia
_ZN3art6Thread25SetReadBarrierEntrypointsEv
_ZN3art6mirror5Class20GetAccessFlagsDCheckILNS_17VerifyObjectFlagsE0EEEvv
_ZN3art7OatFile12OpenFromVdexERKNSt3__16vectorIPKNS_7DexFileENS1_9allocatorIS5_EEEEONS1_10unique_ptrINS_8VdexFileENS1_14default_deleteISC_EEEERKNS1_12basic_stringIcNS1_11char_traitsIcEENS6_IcEEEEPNS_18ClassLoaderContextE
_ZN3art8verifier12ConflictType9instance_E
_ZN3art10ThreadPool10TryGetTaskEPNS_6ThreadE
_ZNK3art11ElfFileImplINS_10ElfTypes32EE10GetDynamicEj
_ZN3art22IndirectReferenceTable10InitializeEmPNSt3__112basic_stringIcNS1_11char_traitsIcEENS1_9allocatorIcEEEE
_ZN3art16RuntimeCallbacks15ObjectWaitStartENS_6HandleINS_6mirror6ObjectEEEl
_ZNK3art9OatHeader13RequiresImageEv
_ZN3art18RuntimeArgumentMap12ExperimentalE
_ZNK3art18ClassLoaderContext15EncodeClassPathERKNSt3__112basic_stringIcNS1_11char_traitsIcEENS1_9allocatorIcEEEERKNS1_6vectorIS7_NS5_IS7_EEEERKNSA_IjNS5_IjEEEENS0_15ClassLoaderTypeERNS1_19basic_ostringstreamIcS4_S6_EE
_ZNK3art11ElfFileImplINS_10ElfTypes64EE17FindDynamicSymbolERKNSt3__112basic_stringIcNS3_11char_traitsIcEENS3_9allocatorIcEEEE
_ZN3art11InternTable12LookupStrongEPNS_6ThreadENS_6ObjPtrINS_6mirror6StringEEE
_ZN3art3jit3JitD0Ev
_ZN3art11Transaction20ResolveMethodTypeLogC1ENS_6ObjPtrINS_6mirror8DexCacheEEENS_3dex10ProtoIndexE
_ZN3art2gc4HeapC2EmmmmddmmmRKNSt3__16vectorINS2_12basic_stringIcNS2_11char_traitsIcEENS2_9allocatorIcEEEENS7_IS9_EEEESD_RKNS3_IiNS7_IiEEEESH_SH_SH_SD_NS_14InstructionSetENS0_13CollectorTypeESJ_NS0_5space20LargeObjectSpaceTypeEmmmbmmbbbbbbbbbbbbbmbb
_ZN3art2gc5space11ZygoteSpace4FreeEPNS_6ThreadEPNS_6mirror6ObjectE
_ZN3art5hprof5Hprof9VisitRootEPNS_6mirror6ObjectERKNS_8RootInfoE
artSetBooleanInstanceFromCompiledCode
_ZNK3com7android3art14ModuleInfoList5writeERNSt3__113basic_ostreamIcNS3_11char_traitsIcEEEERKNS3_12basic_stringIcS6_NS3_9allocatorIcEEEE
_ZN3art2gc4Heap32RequestConcurrentGCAndSaveObjectEPNS_6ThreadEbjPNS_6ObjPtrINS_6mirror6ObjectEEE
_ZN3art9JavaVMExt17LoadNativeLibraryEP7_JNIEnvRKNSt3__112basic_stringIcNS3_11char_traitsIcEENS3_9allocatorIcEEEEP8_jobjectP7_jclassPS9_
_ZN3art18RuntimeArgumentMap12NativeBridgeE
_ZN3art16RuntimeCallbacks26AddDebuggerControlCallbackEPNS_23DebuggerControlCallbackE
_ZN3art6Thread14UnprotectStackEv
_ZN3art16WellKnownClasses37java_lang_invoke_MethodHandles_lookupE
_ZN3art2gc4Heap53AssertAllBumpPointerSpaceThreadLocalBuffersAreRevokedEv
_ZN3art5Trace20FlushStreamingBufferEPNS_6ThreadE
_ZTVN3art2gc9collector9MarkSweep23VerifySystemWeakVisitorE
_ZN3art2gc5space13DlMallocSpace12CreateMspaceEPvmm
_ZN3art2gc5space10ImageSpace25GetBootClassPathChecksumsENS_8ArrayRefIKPS2_EENS3_IKPKNS_7DexFileEEE
_ZN3art11interpreter16UnstartedRuntime33UnstartedUnsafeCompareAndSwapLongEPNS_6ThreadEPNS_11ShadowFrameEPNS_6JValueEm
_ZN3art8verifier12DoubleLoType7DestroyEv
_ZN3art7metrics6statsd11stats_writeEiliiiliiliiiii
_ZNK3art14AotClassLinker26DenyAccessBasedOnPublicSdkEPNS_8ArtFieldE
_ZN3art10SdkCheckerC2Ev
_ZN3art11ClassLinker30VisitClassesWithoutClassesLockEPNS_12ClassVisitorE
_ZN3art6mirror5Class20FindClassInitializerENS_11PointerSizeE
_ZN3art11interpreter16UnstartedRuntime40UnstartedStringFactoryNewStringFromCharsEPNS_6ThreadEPNS_11ShadowFrameEPNS_6JValueEm
_ZN3art14ReferenceTableD1Ev
_ZN3art10OatDexFileC1EPKNS_7OatFileEPKhjRKNSt3__112basic_stringIcNS6_11char_traitsIcEENS6_9allocatorIcEEEESE_S5_
_ZN3art7Runtime11InitMetricsEv
_ZTVN3art8verifier30UninitializedThisReferenceTypeE
_ZN3artlsERNSt3__113basic_ostreamIcNS0_11char_traitsIcEEEENS_8RootTypeE
_ZN3artlsERNSt3__113basic_ostreamIcNS0_11char_traitsIcEEEEPKNS_6PluginE
artSet8InstanceFromCompiledCode
_ZN3art16WellKnownClasses14InitStringInitENS_6ObjPtrINS_6mirror5ClassEEES4_
_ZN3art2gc4Heap27TrimIndirectReferenceTablesEPNS_6ThreadE
_ZN3art6mirror14PrimitiveArrayIfE16GetWithoutChecksEi
_ZN3art18RuntimeArgumentMap12ProfileClockE
_ZN3art18RuntimeArgumentMap20DenyArtApexDataFilesE
_ZN3art18ClassLoaderContext37EncodeClassPathContextsForClassLoaderEP8_jobject
_ZN3art7Runtime19AllowNewSystemWeaksEv
_ZN3art18RuntimeArgumentMap18LongGCLogThresholdE
_ZN3art25ArmInstructionSetFeatures10FromBitmapEj
NterpFilledNewArrayRange
_ZN3art9hiddenapi6detail15MemberSignature18DoesPrefixMatchAnyERKNSt3__16vectorINS3_12basic_stringIcNS3_11char_traitsIcEENS3_9allocatorIcEEEENS8_ISA_EEEE
_ZN3art11interpreter16UnstartedRuntime36UnstartedClassGetSignatureAnnotationEPNS_6ThreadEPNS_11ShadowFrameEPNS_6JValueEm
_ZN3art15GetCallingClassEPNS_6ThreadEm
_ZN3art8verifier12RegisterLine14CheckLiteralOpEPNS0_14MethodVerifierEPKNS_11InstructionERKNS0_7RegTypeES9_bb
_ZN3art8verifier8NullType14CreateInstanceENS_6ObjPtrINS_6mirror5ClassEEERKNSt3__117basic_string_viewIcNS6_11char_traitsIcEEEEt
_ZN3art8verifier8NullType7DestroyEv
_ZN3art29Riscv64InstructionSetFeatures10FromBitmapEj
_ZN3art15instrumentation29UpdateNeedsDexPcEventsOnStackEPNS_6ThreadE
_ZN3art13ObjectTryLockINS_6mirror6ObjectEEC1EPNS_6ThreadENS_6HandleIS2_EE
_ZN3art7Runtime26BroadcastForNewSystemWeaksEb
_ZN3art2gc9collector11MarkCompact20GetUffdAndMinorFaultEv
_ZN3art3Dbg11GcDidFinishEv
_ZN3art6HandleINS_6mirror14PrimitiveArrayIiEEE10GetFromGdbEv
_ZTVN3art16ArtDexFileLoaderE
_ZN3art11HeapSampler12ReportSampleEPNS_6mirror6ObjectEm
_ZN3art18RuntimeArgumentMap20BootClassPathVdexFdsE
_ZN3artlsERNSt3__113basic_ostreamIcNS0_11char_traitsIcEEEENS_11ThreadStateE
_ZN3art11OatFileBase8LoadVdexERKNSt3__112basic_stringIcNS1_11char_traitsIcEENS1_9allocatorIcEEEEbbPS7_
_ZN3art31ThrowNegativeArraySizeExceptionEPKc
_ZN3art26GetProxyReferenceArgumentsEPPNS_9ArtMethodE
_ZN3art5Trace17temp_stack_trace_E
_ZN3art8verifier11BooleanType9instance_E
_ZN3art8verifier12RegTypeCache12ResolveClassEPKcNS_6ObjPtrINS_6mirror11ClassLoaderEEE
_ZN3art16WellKnownClasses28java_lang_ThreadGroup_parentE
_ZN3art5Locks36expected_mutexes_on_weak_ref_access_E
_ZN3art2gc10accounting22ModUnionTableCardCacheC2ERKNSt3__112basic_stringIcNS3_11char_traitsIcEENS3_9allocatorIcEEEEPNS0_4HeapEPNS0_5space15ContinuousSpaceE
_ZN3art12ProfileSaver20ForceProcessProfilesEv
_ZNK3art8verifier20PreciseReferenceType4DumpEv
_ZN3art17ConditionVariable14RequeueWaitersEi
_ZN3artlsERNSt3__113basic_ostreamIcNS0_11char_traitsIcEEEERKNS_6ThreadE
_ZN3art6mirror14PrimitiveArrayIaE15AllocateAndFillEPNS_6ThreadEPKam
_ZN3art7Monitor25lock_profiling_threshold_E
_ZN3art22InstructionSetFeatures15FromCpuFeaturesEv
_ZN3art23OatFileAssistantContextC2ENSt3__110unique_ptrINS0_14RuntimeOptionsENS1_14default_deleteIS3_EEEE
_ZN3art7Runtime21AppendToBootClassPathERKNSt3__112basic_stringIcNS1_11char_traitsIcEENS1_9allocatorIcEEEES9_
_ZNK3art11ElfFileImplINS_10ElfTypes32EE15GetHashChainNumEv
_ZN3art2gc4Heap19PostForkChildActionEPNS_6ThreadE
_ZN3art7Context6CreateEv
_ZTVN3art6detail20CmdlineParseArgumentINS_2gc5space20LargeObjectSpaceTypeEEE
_ZN3art5Trace17RunSamplingThreadEPv
_ZN3art11interpreter26EnterInterpreterFromInvokeEPNS_6ThreadEPNS_9ArtMethodENS_6ObjPtrINS_6mirror6ObjectEEEPjPNS_6JValueEb
_ZN3art6mirror6Object10CopyObjectENS_6ObjPtrIS1_EES3_m
_ZN3art7Monitor11GetHashCodeEv
_ZN3art7Runtime15SetFaultMessageERKNSt3__112basic_stringIcNS1_11char_traitsIcEENS1_9allocatorIcEEEE
_ZNK3art12StackVisitor30GetVRegFromDebuggerShadowFrameEtNS_8VRegKindEPj
_ZNK3com7android3art16KeyValuePairList5writeERNSt3__113basic_ostreamIcNS3_11char_traitsIcEEEERKNS3_12basic_stringIcS6_NS3_9allocatorIcEEEE
_ZN3com7android3art10ModuleInfoC2ENSt3__112basic_stringIcNS3_11char_traitsIcEENS3_9allocatorIcEEEElS9_l
_ZTVN3art2gc5space5SpaceE
_ZN3art7ElfFile5StripEPN9unix_file6FdFileEPNSt3__112basic_stringIcNS4_11char_traitsIcEENS4_9allocatorIcEEEE
_ZN3art2gc9collector9MarkSweep9RunPhasesEv
_ZN3art11InternTable12InsertStrongENS_6ObjPtrINS_6mirror6StringEEEj
_ZN3art3jit3Jit29CompileMethodsFromBootProfileEPNS_6ThreadERKNSt3__16vectorIPKNS_7DexFileENS4_9allocatorIS8_EEEERKNS4_12basic_stringIcNS4_11char_traitsIcEENS9_IcEEEENS_6HandleINS_6mirror11ClassLoaderEEEb
_ZN3art10ThreadPool13DeleteThreadsEv
_ZN3art12StackVisitor21GetNextMethodAndDexPcEPPNS_9ArtMethodEPj
_ZN3art8VdexFile14VdexFileHeaderC1Eb
_ZNK3com7android3art10ModuleInfo5writeERNSt3__113basic_ostreamIcNS3_11char_traitsIcEEEERKNS3_12basic_stringIcS6_NS3_9allocatorIcEEEE
_ZN3art3jit12JitCodeCacheC2Ev
_ZN3art5arm6412Arm64Context10DoLongJumpEv
_ZNK3art11ClassLinker19NumNonZygoteClassesEv
_ZN3art12BoxPrimitiveENS_9Primitive4TypeERKNS_6JValueE
_ZN3art2gc9collector17ConcurrentCopying17ExpandGcMarkStackEv
_ZN3art2gc20AllocRecordObjectMapD1Ev
_ZN3art2gc9collector9MarkSweep16SweepSystemWeaksEPNS_6ThreadE
_ZN3art6Thread17SetNativePriorityEi
_ZNK3art7Runtime14GetTransactionEv
_ZN3art13SignalCatcher3RunEPv
_ZN3art5Trace12UseWallClockEv
_ZN3art15MemMapArenaPoolD0Ev
_ZN3art2gc4Heap24SetTargetHeapUtilizationEf
_ZN3art11InternTable12InternStrongEPKc
_ZN3art27RepackNativeDebugInfoForJitEv
_ZNK3com7android3art9Component7getFileEv
_ZN3art2gc5space11MallocSpace17CreateZygoteSpaceEPKcbPPS2_
_ZN3art9hiddenapi6detail15MemberSignatureC1EPNS_9ArtMethodE
_ZN3art18RuntimeArgumentMap25PerfettoJavaHeapStackProfE
_ZN3art6Thread21RunCheckpointFunctionEv
_ZN3art2gc9collector9MarkSweep36RevokeAllThreadLocalAllocationStacksEPNS_6ThreadE
_ZN3art5hprof5Hprof13DumpHeapArrayEPNS_6mirror5ArrayEPNS2_5ClassE
_ZNK3art8verifier20UnresolvedSuperClass4DumpEv
_ZN3art11interpreter25DoMethodHandleInvokeExactEPNS_6ThreadERNS_11ShadowFrameEPKNS_11InstructionEtPNS_6JValueE
_ZN3art11interpreter16UnstartedRuntime40UnstartedJNIVMStackGetCallingClassLoaderEPNS_6ThreadEPNS_9ArtMethodEPNS_6mirror6ObjectEPjPNS_6JValueE
_ZN3art14NterpFrameInfoEPPNS_9ArtMethodE
_ZN3art11Transaction16RecordWriteArrayEPNS_6mirror5ArrayEmm
_ZTVN3art21RuntimeArgumentMapKeyIdEE
_ZN3art6Thread19SetCachedThreadNameEPKc
_ZNK3art2gc10accounting11SpaceBitmapILm4096EE4TestEPKNS_6mirror6ObjectE
_ZN3art6Thread18ThrowNewExceptionFEPKcS2_z
_ZNK3art9hiddenapi6detail15MemberSignature4DumpERNSt3__113basic_ostreamIcNS3_11char_traitsIcEEEE
_ZN3art7MonitorC1EPNS_6ThreadES2_NS_6ObjPtrINS_6mirror6ObjectEEEi
_ZN3art7OatFile12FindOatClassERKNS_7DexFileEtPb
_ZN3art11InternTable5Table11AddNewTableEv
_ZN3art3jit12JitCodeCache6CreateEbbbPNSt3__112basic_stringIcNS2_11char_traitsIcEENS2_9allocatorIcEEEE
_ZN3art18RuntimeArgumentMap31MaxSpinsBeforeThinLockInflationE
_ZN3art18RuntimeArgumentMap27MadviseWillNeedOdexFileSizeE
artQuickGenericJniEndTrampoline
_ZNSt3__115basic_stringbufIcNS_11char_traitsIcEENS_9allocatorIcEEE9pbackfailEi
_ZN3art6mirror6String21AllocFromModifiedUtf8EPNS_6ThreadEPKc
_ZN3art2gc9collector17ConcurrentCopying27RevokeAllThreadLocalBuffersEv
_ZN3art11interpreter16UnstartedRuntime24UnstartedSystemArraycopyEPNS_6ThreadEPNS_11ShadowFrameEPNS_6JValueEm
_ZN3com7android4apex16readApexInfoListEPKc
GetAarch64Info
_ZN3art3jit3Jit21CompileMethodInternalEPNS_9ArtMethodEPNS_6ThreadENS_15CompilationKindEb
_ZN3art6Thread6UnparkEv
_ZNK3art8verifier12RegTypeCache9FindClassENS_6ObjPtrINS_6mirror5ClassEEEb
_ZN3art11interpreter16UnstartedRuntime32UnstartedClassGetInnerClassFlagsEPNS_6ThreadEPNS_11ShadowFrameEPNS_6JValueEm
_ZNK3art7Runtime20IsCompilingBootImageEv
_ZTVN3art21RuntimeArgumentMapKeyINS_6MemoryILm1EEEEE
CpuFeatures_GetPlatformPointer
_ZNK3art11ElfFileImplINS_10ElfTypes64EE24FindDynamicSymbolAddressERKNSt3__112basic_stringIcNS3_11char_traitsIcEENS3_9allocatorIcEEEE
_ZNK3art11ElfFileImplINS_10ElfTypes64EE10GetRelaNumER10elf64_shdr
_ZN3art11interpreter16UnstartedRuntime32UnstartedConstructorNewInstance0EPNS_6ThreadEPNS_11ShadowFrameEPNS_6JValueEm
_ZN3art6mirror6Object16IdentityHashCodeEv
_ZNK3art9OatHeader27GetStoreKeyValuePairByIndexEmPPKcS3_
_ZN3art11Transaction25RecordWeakStringInsertionENS_6ObjPtrINS_6mirror6StringEEE
_ZNK3art2gc4Heap53SupportHomogeneousSpaceCompactAndCollectorTransitionsEv
_ZN3art23OatFileAssistantContext8FetchAllEPNSt3__112basic_stringIcNS1_11char_traitsIcEENS1_9allocatorIcEEEE
_ZN3art3armlsERNSt3__113basic_ostreamIcNS1_11char_traitsIcEEEERKNS0_8RegisterE
NterpGetShortyFromInvokeCustom
_ZN3com7android4apex12ApexInfoListC2ENSt3__16vectorINS1_8ApexInfoENS3_9allocatorIS5_EEEE
_ZN3art3jit12JitCodeCache14ContainsMethodEPNS_9ArtMethodE
DlmallocMadviseCallback
_ZN3art2gc4Heap23CheckPerfettoJHPEnabledEv
_ZN3art6HandleINS_6mirror21ArrayElementVarHandleEE10GetFromGdbEv
_ZN3art6Thread25PushDeoptimizationContextERKNS_6JValueEbNS_6ObjPtrINS_6mirror9ThrowableEEEbNS_24DeoptimizationMethodTypeE
_ZN3art24ForEachNativeDebugSymbolENSt3__18functionIFvPKvmPKcEEE
_ZTVN3art21RuntimeArgumentMapKeyIiEE
_ZN3art16WellKnownClasses32java_lang_ref_ReferenceQueue_addE
_ZN3art9JavaVMExt21UnloadNativeLibrariesEv
_ZN3art11interpreter16UnstartedRuntime52UnstartedJNIUnsafeGetArrayBaseOffsetForComponentTypeEPNS_6ThreadEPNS_9ArtMethodEPNS_6mirror6ObjectEPjPNS_6JValueE
_ZNK3com7android4apex8ApexInfo13hasModuleNameEv
_ZNK3art18ClassLoaderContext15FlattenDexPathsEv
_ZN3art2gc9allocator8RosAlloc10numOfPagesE
_ZN3art2gc4Heap24RevokeThreadLocalBuffersEPNS_6ThreadE
_ZN3art2gc13TaskProcessor5StartEPNS_6ThreadE
_ZTVN3art13CHACheckpointE
_ZN3art2gc9collector9SemiSpace27VerifyNoFromSpaceReferencesEPNS_6mirror6ObjectE
_ZTVN3art14BarrierClosureE
artSetObjInstanceFromCode
_ZN3art2gc5space19LargeObjectMapSpace4WalkEPFvPvS3_mS3_ES3_
_ZN3art11interpreter30EnterInterpreterFromDeoptimizeEPNS_6ThreadEPNS_11ShadowFrameEPNS_6JValueEbNS_24DeoptimizationMethodTypeE
_ZN3art9JNIEnvExt14DeleteLocalRefEP8_jobject
_ZN3art5Trace26CompareAndUpdateStackTraceEPNS_6ThreadEPNSt3__16vectorIPNS_9ArtMethodENS3_9allocatorIS6_EEEE
_ZN3art2gc9collector11MarkCompact11ReMarkRootsEPNS_7RuntimeE
_ZN3art16WellKnownClasses20java_lang_ClassValueE
_ZN3art8verifier8Cat1TypeC2ENS_6ObjPtrINS_6mirror5ClassEEERKNSt3__117basic_string_viewIcNS6_11char_traitsIcEEEEt
artSetShortInstanceFromCompiledCode
_ZN3art11InternTable5Table4FindENS_6ObjPtrINS_6mirror6StringEEEjm
_ZN3art11interpreter16UnstartedRuntime28UnstartedSystemArraycopyByteEPNS_6ThreadEPNS_11ShadowFrameEPNS_6JValueEm
_ZN3art9JNIEnvExt11NewLocalRefEPNS_6mirror6ObjectE
_ZTVN3art2gc5space19LargeObjectMapSpaceE
_ZN3art10ThreadPoolD1Ev
_ZN3art6mirror5Class6CopyOfENS_6HandleIS1_EEPNS_6ThreadEiPNS_7ImTableENS_11PointerSizeE
_ZN3art2gc5space11RegionSpace11ToSpaceSizeEv
_ZN3art2gc5space11RegionSpace11DumpRegionsERNSt3__113basic_ostreamIcNS3_11char_traitsIcEEEE
_ZNK3art2gc5space10ImageSpace10GetOatFileEv
_ZN3art2gc10accounting17MemoryRangeBitmapILm1024EEC2EONS_6MemMapEmm
_ZN3art6HandleINS_6mirror8ClassExtEE10GetFromGdbEv
_ZN3art6Thread15VerifyStackImplEv
_ZN3art16ThreadPoolWorker8CallbackEPv
_ZN3art2gc5space5Space18AsBumpPointerSpaceEv
_ZN3art5Locks21IsSafeToCallAbortRacyEv
_ZN3art18BacktraceCollector11CollectImplEPN11unwindstack8UnwinderE
_ZN3art18ClassLoaderContext25CreateInfoFromClassLoaderERNS_33ScopedObjectAccessAlreadyRunnableENS_6HandleINS_6mirror11ClassLoaderEEENS3_INS4_11ObjectArrayINS4_6ObjectEEEEEPNS0_15ClassLoaderInfoEbb
_ZN3art9hiddenapi6detail15MemberSignatureC1ERKNS_13ClassAccessor5FieldE
_ZN3art3jni19LocalReferenceTable6ResizeEmPNSt3__112basic_stringIcNS2_11char_traitsIcEENS2_9allocatorIcEEEE
_ZNK3art15instrumentation15Instrumentation20MethodEnterEventImplEPNS_6ThreadEPNS_9ArtMethodE
_ZN3art18RuntimeArgumentMap18JITWarmupThresholdE
_ZNK3art6mirror14PrimitiveArrayIfE7GetDataEv
_ZN3art2gc9collector17ConcurrentCopying22AllocateInSkippedBlockEPNS_6ThreadEm
_ZN3art3jit12JitCodeCache19ResetHotnessCounterEPNS_9ArtMethodEPNS_6ThreadE
_ZN3art7Monitor6UnlockEPNS_6ThreadE
_ZN3art2gc10accounting17MemoryRangeBitmapILm8EE16CreateFromMemMapEONS_6MemMapEmm
_ZN3art2gc5space11RegionSpace24RevokeThreadLocalBuffersEPNS_6ThreadEb
_ZN3art11InternTable19ChangeWeakRootStateENS_2gc13WeakRootStateE
_ZN3art3jit3Jit15AddPostBootTaskEPNS_6ThreadEPNS_4TaskE
_ZN3art6mirror9VarHandle18GetCoordinateType0Ev
_ZN3art18RuntimeArgumentMap14PropertiesListE
_ZN3art7Barrier15IncrementNoWaitEPNS_6ThreadE
_ZN3art11annotations13GetInnerClassENS_6HandleINS_6mirror5ClassEEEPNS_6ObjPtrINS2_6StringEEE
_ZNK3art2gc10accounting13RememberedSet33AssertAllDirtyCardsAreWithinSpaceEv
_ZTVN3art3jit14JitProfileTaskE
_ZN3art12ProfileSaver9IsStartedEv
_ZN3art16WellKnownClasses31java_lang_RuntimeException_initE
NterpUnimplemented
mspace_independent_calloc
_ZN3art2gc9collector17ConcurrentCopying16ProcessMarkStackEv
_ZThn136_N3art2gc5space11ZygoteSpace5AllocEPNS_6ThreadEmPmS5_S5_
_ZN3art14ReferenceTable10VisitRootsEPNS_11RootVisitorERKNS_8RootInfoE
_ZN3art2gc9collector17ConcurrentCopying18FillWithFakeObjectEPNS_6ThreadEPNS_6mirror6ObjectEm
_ZN3art7metrics15MetricsReporter20RequestMetricsReportEb
_ZN3art7Runtime19ClearInstructionSetEv
_ZN3art25X86InstructionSetFeatures14FromCppDefinesEb
_ZN3artlsERNSt3__113basic_ostreamIcNS0_11char_traitsIcEEEENS_5Trace9TraceModeE
_ZN3art2gc5space16LargeObjectSpace8FreeListEPNS_6ThreadEmPPNS_6mirror6ObjectE
_ZTVN3art13VariantMapKeyIPFviEEE
_ZTVNSt3__119basic_ostringstreamIcNS_11char_traitsIcEENS_9allocatorIcEEEE
_ZN3art21AppImageLoadingHelper21HandleAppImageStringsEPNS_2gc5space10ImageSpaceE
_ZN3art2gc10accounting11SpaceBitmapILm4096EE16CreateFromMemMapERKNSt3__112basic_stringIcNS4_11char_traitsIcEENS4_9allocatorIcEEEEONS_6MemMapEPhm
_ZN3art18RuntimeArgumentMap13ConcGCThreadsE
_ZNK3art2gc4Heap24ObjectIsInBootImageSpaceENS_6ObjPtrINS_6mirror6ObjectEEE
_ZNSt3__16vectorINS_12basic_stringIcNS_11char_traitsIcEENS_9allocatorIcEEEENS4_IS6_EEE24__emplace_back_slow_pathIJS6_EEEvDpOT_
_ZN3art18RuntimeArgumentMap13PerfettoHprofE
_ZN3art5arm6412Arm64Context5ResetEv
_ZNK3com7android3art10ModuleInfo14getVersionCodeEv
_ZN3art2gc5space13DlMallocSpace12GetFootprintEv
_ZN3art2gc9allocator8RosAlloc24AllocFromRunThreadUnsafeEPNS_6ThreadEmPmS5_S5_
_ZN3art9ArtMethod20GetNonObsoleteMethodEv
_ZNK3art11ElfFileImplINS_10ElfTypes32EE21GetSymbolSectionStartEj
_ZN3art2gc9collector17ConcurrentCopying9RunPhasesEv
_ZN3art3jit12JitCodeCache15DoneCompilerUseEPNS_9ArtMethodEPNS_6ThreadE
_ZN3art2gc9collector9SemiSpace22MarkNonForwardedObjectEPNS_6mirror6ObjectE
_ZN3art2gc4Heap34AssertThreadLocalBuffersAreRevokedEPNS_6ThreadE
artAllocStringObjectRegion
_ZN3art6mirror10MethodType6CreateEPNS_6ThreadENS_6HandleINS0_5ClassEEENS4_INS0_11ObjectArrayIS5_EEEE
_ZN3art6mirror5Class35SetSkipAccessChecksFlagOnAllMethodsENS_11PointerSizeE
_ZN3art2gc9allocator8RosAlloc12initialized_E
_ZN3art11interpreter34DoVarHandleGetAndBitwiseAndAcquireEPNS_6ThreadERNS_11ShadowFrameEPKNS_11InstructionEtPNS_6JValueE
_ZNK3art8verifier7RegType5MergeERKS1_PNS0_12RegTypeCacheEPNS0_14MethodVerifierE
_ZN3art2gc5space11RegionSpace14AllocateRegionEb
_ZN3art2gc5space13RosAllocSpace16CreateFromMemMapEONS_6MemMapERKNSt3__112basic_stringIcNS5_11char_traitsIcEENS5_9allocatorIcEEEEmmmmbb
_ZN3art2gc10accounting22ModUnionTableCardCache10ClearTableEv
_ZN3art18RuntimeArgumentMap19StopForNativeAllocsE
_ZTVN3art21RuntimeArgumentMapKeyINS_4UnitEEE
_ZN3art10ThreadList25AssertThreadsAreSuspendedEPNS_6ThreadES2_S2_
_ZN3art2gc9collector16GarbageCollectorC2EPNS0_4HeapERKNSt3__112basic_stringIcNS5_11char_traitsIcEENS5_9allocatorIcEEEE
_ZN3art6HandleINS_6mirror8CallSiteEE13ObjectFromGdbEv
_ZZN3art6MemoryILm1EE4NameEvE3str
_ZN3art5Locks28native_debug_interface_lock_E
_ZN3art6mirror6String21ComputeAndSetHashCodeEv
_ZN3art11interpreter16UnstartedRuntime31UnstartedSystemIdentityHashCodeEPNS_6ThreadEPNS_11ShadowFrameEPNS_6JValueEm
_ZN3art14ReferenceTable3AddENS_6ObjPtrINS_6mirror6ObjectEEE
_ZN3art13SignalCatcher11SetHaltFlagEb
_ZTVN3art8verifier8NullTypeE
_ZN3art16WellKnownClasses33java_lang_Float_floatToRawIntBitsE
_ZN3art18RuntimeArgumentMap20MethodTraceStreamingE
_ZN3art28ThrowIllegalAccessErrorClassENS_6ObjPtrINS_6mirror5ClassEEES3_
_ZTVN3art2gc9collector16GarbageCollectorE
_ZN3art2gc4HeapD2Ev
_ZN3art21GetJniNativeInterfaceEv
_ZN3art2gc5space13RosAllocSpace4TrimEv
_ZN3art11interpreter22MoveToExceptionHandlerEPNS_6ThreadERNS_11ShadowFrameEbb
_ZN3artlsERNSt3__113basic_ostreamIcNS0_11char_traitsIcEEEENS_22StackedShadowFrameTypeE
_ZN3art7Barrier4InitEPNS_6ThreadEi
_ZN3art12TrackedArena12ReleasePagesEPhmb
_ZN3art12FaultManager7ReleaseEv
_ZN3art2gc9collector17ConcurrentCopying38AssertToSpaceInvariantInNonMovingSpaceEPNS_6mirror6ObjectES5_
_ZN3art15instrumentation15Instrumentation26ResetQuickAllocEntryPointsEv
_ZN3art2gc5space19LargeObjectMapSpace33SetAllLargeObjectsAsZygoteObjectsEPNS_6ThreadEb
_ZN3art9JNIEnvExt38SetFunctionsToRuntimeShutdownFunctionsEv
_ZN3art26EntrypointRequiresStackMapENS_19QuickEntrypointEnumE
_ZN3art3jit12JitCodeCache4FreeEPNS_6ThreadEPNS0_15JitMemoryRegionEPKhS7_
_ZN3artlsERNSt3__113basic_ostreamIcNS0_11char_traitsIcEEEERKNS_6PluginE
_ZN3art6Thread26ModifySuspendCountInternalEPS0_iPNS_6AtomicIiEENS_13SuspendReasonE
_ZN3art15instrumentation15Instrumentation21UpdateMethodsCodeImplEPNS_9ArtMethodEPKv
_ZN3art8verifier12RegisterLine16CheckUnaryOpWideEPNS0_14MethodVerifierEPKNS_11InstructionERKNS0_7RegTypeES9_S9_S9_
_ZN3art2gc5space13RosAllocSpace5ClearEv
_ZN3art38register_java_lang_reflect_ConstructorEP7_JNIEnv
_ZN3art10ObjectLockINS_6mirror5ClassEE6NotifyEv
_ZN3art5Trace9FieldReadEPNS_6ThreadENS_6HandleINS_6mirror6ObjectEEEPNS_9ArtMethodEjPNS_8ArtFieldE
_ZNK3art2gc4Heap14GetTotalMemoryEv
_ZN3art2gc9collector17ConcurrentCopying30GrayAllNewlyDirtyImmuneObjectsEv
_ZN3art6HandleINS_6mirror20StaticFieldVarHandleEE10GetFromGdbEv
_ZN3art6mirror5Class25FindDeclaredInstanceFieldENS_6ObjPtrINS0_8DexCacheEEEj
_ZN3art11Transaction22UndoArrayModificationsEv
_ZNK3art11ElfFileImplINS_10ElfTypes32EE9GetStringER10elf32_shdrj
_ZN3art2gc10accounting9CardTableC2EONS_6MemMapEPhm
_ZN3art2gc4Heap18UpdateProcessStateENS_12ProcessStateES2_
_ZN3art6HandleINS_6mirror8CallSiteEE10GetFromGdbEv
_ZN3art16WellKnownClasses28java_lang_Runtime_nativeLoadE
_ZN3art6mirror14PrimitiveArrayIsE15AllocateAndFillEPNS_6ThreadEPKsm
_ZN3art18RuntimeArgumentMap30ForegroundHeapGrowthMultiplierE
_ZN3art8verifier12RegisterLine22CheckBinaryOpWideShiftEPNS0_14MethodVerifierEPKNS_11InstructionERKNS0_7RegTypeES9_S9_
_ZN3art18ClassLoaderContext13ParseInternalERKNSt3__112basic_stringIcNS1_11char_traitsIcEENS1_9allocatorIcEEEEb
_ZTVN3art2gc9collector11MarkCompact25CheckpointMarkThreadRootsE
_ZN3art11MonitorListC2Ev
_ZN3art25X86InstructionSetFeatures6CreateEbbbbbbb
_ZN3art9ArtMethod23GetOatQuickMethodHeaderEm
_ZN3art2gc14ReferenceQueue30DisableReadBarrierForReferenceENS_6ObjPtrINS_6mirror9ReferenceEEENSt3__112memory_orderE
_ZNSt3__114__split_bufferIPmNS_9allocatorIS1_EEE9push_backEOS1_
_ZN3art3jit3Jit16StopProfileSaverEv
_ZTVN3art3jit3JitE
_ZN3art6mirror8ClassExt17SetObsoleteArraysENS_6ObjPtrINS0_12PointerArrayEEENS2_INS0_11ObjectArrayINS0_8DexCacheEEEEE
_ZN3art6mirror5Class15EnsureMethodIdsENS_6HandleIS1_EE
_ZN3art37register_java_lang_StackStreamFactoryEP7_JNIEnv
_ZN3art18RuntimeArgumentMap20MonitorTimeoutEnableE
_ZN3art3jit12JitCodeCache19PostForkChildActionEbb
artResolveMethodHandleFromCode
GetAarch64FeaturesEnumValue
_ZNK3art18ClassLoaderContext17CreateClassLoaderERKNSt3__16vectorIPKNS_7DexFileENS1_9allocatorIS5_EEEE
_ZN3art11interpreter16UnstartedRuntime33UnstartedSystemGetSecurityManagerEPNS_6ThreadEPNS_11ShadowFrameEPNS_6JValueEm
_ZN3art17InvokeConstructorERKNS_33ScopedObjectAccessAlreadyRunnableEPNS_9ArtMethodENS_6ObjPtrINS_6mirror6ObjectEEEP8_jobject
_ZN3art10ElfOatFile21InitializeFromElfFileEiPNS_7ElfFileEPNS_8VdexFileENS_8ArrayRefIKNSt3__112basic_stringIcNS6_11char_traitsIcEENS6_9allocatorIcEEEEEEPSC_
_ZN3art10ClassTable6LookupEPKcm
_ZN3art2gc5space10ImageSpaceC1ERKNSt3__112basic_stringIcNS3_11char_traitsIcEENS3_9allocatorIcEEEEPKcRKNS3_6vectorIS9_NS7_IS9_EEEEONS_6MemMapEONS0_10accounting11SpaceBitmapILm8EEEPh
_ZNK3art15instrumentation15Instrumentation19WatchedFramePopImplEPNS_6ThreadERKNS_11ShadowFrameE
_ZN3art10ObjectLockINS_6mirror5ClassEE9NotifyAllEv
_ZN3art7Runtime4InitEONS_18RuntimeArgumentMapE
_ZTVN3art30VisitClassLoaderClassesVisitorE
_ZThn136_N3art2gc5space16BumpPointerSpace27RevokeAllThreadLocalBuffersEv
_ZN3art16RuntimeCallbacksC1Ev
_ZN3art11QuasiAtomic7StartupEv
_ZNK3art9ExecUtils11GetUptimeMsEv
_ZNK3art3jit9ZygoteMap10GetCodeForEPNS_9ArtMethodEm
_ZTVN3art6detail20CmdlineParseArgumentINS_15ParseStringListILc58EEEEE
_ZN3art3jit3Jit25CompileMethodsFromProfileEPNS_6ThreadERKNSt3__16vectorIPKNS_7DexFileENS4_9allocatorIS8_EEEERKNS4_12basic_stringIcNS4_11char_traitsIcEENS9_IcEEEENS_6HandleINS_6mirror11ClassLoaderEEEb
_ZN3art11Transaction14VisitArrayLogsEPNS_11RootVisitorEPNS_10ArenaStackE
_ZNK3art8verifier7RegType15CheckInvariantsEv
_ZN3art7testing15MemCmp16TestingEPKtS2_m
_ZN3art18NullPointerHandler15IsValidReturnPcEPPNS_9ArtMethodEm
_ZN3art7RuntimeC2Ev
_ZN3art5Locks35AddToExpectedMutexesOnWeakRefAccessEPNS_9BaseMutexEb
_ZN3art2gc10accounting22ModUnionTableCardCache12ProcessCardsEv
_ZN3art6mirror5Class19GetInstanceFieldIdsEv
_ZN3art8verifier12RegTypeCache16GetComponentTypeERKNS0_7RegTypeENS_6ObjPtrINS_6mirror11ClassLoaderEEE
_ZNSt3__113basic_filebufIcNS_11char_traitsIcEEE7seekoffExNS_8ios_base7seekdirEj
_ZNK3art9OatHeader27GetJniDlsymLookupTrampolineEv
_ZN3art10ThreadPool12GetTaskCountEPNS_6ThreadE
_ZN3art2gc4Heap5LogGCENS0_7GcCauseEPNS0_9collector16GarbageCollectorE
_ZNK3art11InternTable5Table4SizeEv
_ZTVN3art6mirror6Object8AccessorIhEE
_ZNK3art8verifier16InstructionFlags8ToStringEv
_ZN3art3jit3Jit16RegisterDexFilesERKNSt3__16vectorINS2_10unique_ptrIKNS_7DexFileENS2_14default_deleteIS6_EEEENS2_9allocatorIS9_EEEEP8_jobject
_ZNK3art6Thread4DumpERNSt3__113basic_ostreamIcNS1_11char_traitsIcEEEEbb
_ZN3art32register_dalvik_system_VMRuntimeEP7_JNIEnv
_ZNK3art9OatHeader16GetKeyValueStoreEv
_ZTVN3art8verifier18ImpreciseConstTypeE
_ZN3art22InstructionSetFeatures11FromCpuInfoEv
_ZN3art2gc4Heap21RemoveGcPauseListenerEv
_ZN3art6HandleINS_6mirror17StackTraceElementEE13ObjectFromGdbEv
_ZNK3art8CodeInfo20DecodeDexRegisterMapEjjPNS_14DexRegisterMapE
_ZN3art16WellKnownClasses50org_apache_harmony_dalvik_ddmc_DdmServer_broadcastE
_ZNK3art2gc5space11RegionSpace4DumpERNSt3__113basic_ostreamIcNS3_11char_traitsIcEEEE
_ZN3art3jni19LocalReferenceTable15SetSegmentStateENS0_15LRTSegmentStateE
artGetByteInstanceFromCode
_ZN3art7Runtime20VisitConcurrentRootsEPNS_11RootVisitorENS_14VisitRootFlagsE
_ZN3art2gc9collector12ImmuneRegionC1Ev
_ZN3art2gc9collector11MarkCompactC1EPNS0_4HeapE
_ZNK3art2gc9collector9SemiSpace16ShouldSweepSpaceEPNS0_5space15ContinuousSpaceE
_ZN3art2gc5space13DlMallocSpace14CreateInstanceEONS_6MemMapERKNSt3__112basic_stringIcNS5_11char_traitsIcEENS5_9allocatorIcEEEEPvPhSF_SF_mb
_ZTVN3art21RuntimeArgumentMapKeyINS_9XGcOptionEEE
_ZN3art6Thread28RequestSynchronousCheckpointEPNS_7ClosureENS_11ThreadStateE
_ZN3art11ClassLinker30ResolveMethodWithoutInvokeTypeEjNS_6HandleINS_6mirror8DexCacheEEENS1_INS2_11ClassLoaderEEE
_ZThn296_N3art2gc5space16LargeObjectSpace28LogFragmentationAllocFailureERNSt3__113basic_ostreamIcNS3_11char_traitsIcEEEEm
artDeoptimize
_ZN3art11interpreter16UnstartedRuntime31UnstartedClassGetPrimitiveClassEPNS_6ThreadEPNS_11ShadowFrameEPNS_6JValueEm
_ZN3art15StripParametersENSt3__112basic_stringIcNS0_11char_traitsIcEENS0_9allocatorIcEEEE
_ZN3art18RuntimeArgumentMap26StackDumpLockProfThresholdE
_ZN3art2gc9collector17ConcurrentCopying45ProcessMarkStackForMarkingAndComputeLiveBytesEv
_ZN3art2gc11PrettyCauseENS0_7GcCauseE
_ZN3art11interpreter33DoVarHandleGetAndBitwiseOrReleaseEPNS_6ThreadERNS_11ShadowFrameEPKNS_11InstructionEtPNS_6JValueE
_ZN3art13LockCountData10AddMonitorEPNS_6ThreadEPNS_6mirror6ObjectE
_ZN3art3jit3Jit4StopEv
_ZN3art18RuntimeArgumentMap21DumpJITInfoOnShutdownE
_ZN3art7Monitor15AppendToWaitSetEPNS_6ThreadE
_ZTVN3art21RuntimeArgumentMapKeyINS_12LogVerbosityEEE
_ZN3art6mirror5Class19FindInterfaceMethodENS_6ObjPtrINS0_8DexCacheEEEjNS_11PointerSizeE
_ZN3art18ClassLoaderContext29RemoveLocationsFromClassPathsERKNS_15dchecked_vectorINSt3__112basic_stringIcNS2_11char_traitsIcEENS2_9allocatorIcEEEENS6_IS8_EEEE
_ZN3art12StackVisitor16ComputeNumFramesEPNS_6ThreadENS0_13StackWalkKindE
_ZN3art2gc9collector11MarkCompact27InitMovingSpaceFirstObjectsEm
_ZNK3art2gc4Heap32BroadcastForNewAllocationRecordsEv
_ZThn136_N3art2gc5space16BumpPointerSpace24RevokeThreadLocalBuffersEPNS_6ThreadE
_ZN3artlsERNSt3__113basic_ostreamIcNS0_11char_traitsIcEEEENS_11ImageHeader13ImageSectionsE
_ZN3art8verifier13ClassVerifier16VisitStaticRootsEPNS_11RootVisitorE
_ZNK3art8VdexFile14VdexFileHeader12IsMagicValidEv
_ZNK3art11InternTable14DumpForSigQuitERNSt3__113basic_ostreamIcNS1_11char_traitsIcEEEE
_ZN3art16ThreadPoolWorkerD2Ev
_ZN3art11Transaction23UndoObjectModificationsEv
_ZN3artlsERNSt3__113basic_ostreamIcNS0_11char_traitsIcEEEENS_5Trace15TraceOutputModeE
_ZN3art18KernelSupportsUffdEv
_ZN3art7Barrier9IncrementEPNS_6ThreadEij
_ZN3art11ElfFileImplINS_10ElfTypes32EED2Ev
_ZN3art2gc9collector17ConcurrentCopying27CreateInterRegionRefBitmapsEv
_ZN3art2gc9collector16GarbageCollector11ScopedPauseC1EPS2_b
_ZN3art2gc9collector9SemiSpace15InitializePhaseEv
_ZN3art2gc5space11MallocSpace14SetGrowthLimitEm
_ZN3art11interpreter16UnstartedRuntime33UnstartedJNIStringFillBytesLatin1EPNS_6ThreadEPNS_9ArtMethodEPNS_6mirror6ObjectEPjPNS_6JValueE
_ZN3art3jni17SmallLrtAllocator8AllocateEmPNSt3__112basic_stringIcNS2_11char_traitsIcEENS2_9allocatorIcEEEE
_ZN3art16RuntimeCallbacks23MonitorContendedLockingEPNS_7MonitorE
_ZN3art2gc4Heap25kPreferredAllocSpaceBeginE
_ZN3art3jit12JitCodeCache37GetSavedEntryPointOfPreCompiledMethodEPNS_9ArtMethodE
_ZN3art18RuntimeArgumentMap15UseStderrLoggerE
_ZN3art8verifier23FindLockAliasedRegisterEjRKNS_7SafeMapIjjNSt3__14lessIjEENS_27ScopedArenaAllocatorAdapterINS2_4pairIKjjEEEEEESC_
_ZTVN3art2gc22VerifyReferenceVisitorE
_ZN3art7Runtime14PostZygoteForkEv
_ZN3art7Runtime11SetSentinelENS_6ObjPtrINS_6mirror6ObjectEEE
_ZN3art21ThrowClassFormatErrorENS_6ObjPtrINS_6mirror5ClassEEEPKcz
_ZN3art11interpreter16UnstartedRuntime37UnstartedJNIJdkUnsafeCompareAndSetIntEPNS_6ThreadEPNS_9ArtMethodEPNS_6mirror6ObjectEPjPNS_6JValueE
_ZN3art3jni19LocalReferenceTableD2Ev
_ZN3art13SignalCatcherC1Ev
_ZN3com7android4apex12ApexInfoListC1ENSt3__16vectorINS1_8ApexInfoENS3_9allocatorIS5_EEEE
CpuFeatures_StringView_Front
_ZN3art5Trace7DumpBufEPhmNS_16TraceClockSourceE
_ZN3art11interpreter29ShouldStayInSwitchInterpreterEPNS_9ArtMethodE
_ZN3art2gc5space10ImageSpaceD0Ev
_ZN3art16OatFileAssistant24DexLocationToOatFilenameERKNSt3__112basic_stringIcNS1_11char_traitsIcEENS1_9allocatorIcEEEENS_14InstructionSetEbPS7_SB_
_ZN3art10ThreadList14DumpForSigQuitERNSt3__113basic_ostreamIcNS1_11char_traitsIcEEEE
artAllocObjectFromCodeWithChecksRegionInstrumented
_ZNK3art2gc4Heap15IsMovableObjectENS_6ObjPtrINS_6mirror6ObjectEEE
_ZN3art18RuntimeArgumentMap24VerifierLoggingThresholdE
create_mspace
_ZNK3art9OatHeader12IsKeyEnabledEPKc
_ZN3art16OatFileAssistant11GetBestInfoEv
_ZN3art11ElfFileImplINS_10ElfTypes32EE4OpenEPN9unix_file6FdFileEiibPNSt3__112basic_stringIcNS6_11char_traitsIcEENS6_9allocatorIcEEEE
_ZN3art2gc5spacelsERNSt3__113basic_ostreamIcNS2_11char_traitsIcEEEENS1_11RegionSpace10RegionTypeE
_ZN3art2gc5space13RosAllocSpace15AllocWithGrowthEPNS_6ThreadEmPmS5_S5_
_ZN3art6mirror6String6EqualsEPKc
_ZN3artlsERNSt3__113basic_ostreamIcNS0_11char_traitsIcEEEERKNS_5MutexE
_ZN3art2gc9collector9SemiSpace10SetToSpaceEPNS0_5space26ContinuousMemMapAllocSpaceE
_ZN3art9JNIEnvExt18SegmentStateOffsetEm
_ZN3art6Thread6AttachEPKcbP8_jobjectbb
_ZN3art11Transaction19RecordResolveStringENS_6ObjPtrINS_6mirror8DexCacheEEENS_3dex11StringIndexE
_ZN3art8verifier12RegTypeCache36CreatePrimitiveAndSmallConstantTypesEPNS_11ClassLinkerE
_ZN3art9BaseMutexD2Ev
_ZN3art2gc10accounting17MemoryRangeBitmapILm1024EE16CreateFromMemMapEONS_6MemMapEmm
_ZN3art2gc5space13DlMallocSpace28LogFragmentationAllocFailureERNSt3__113basic_ostreamIcNS3_11char_traitsIcEEEEm
_ZThn136_N3art2gc5space11ZygoteSpace14AllocationSizeEPNS_6mirror6ObjectEPm
_ZNK3art15instrumentation15Instrumentation19DexPcMovedEventImplEPNS_6ThreadENS_6ObjPtrINS_6mirror6ObjectEEEPNS_9ArtMethodEj
_ZN3art3jit16ScopedJitSuspendC2Ev
_ZN3art6mirror14PrimitiveArrayIsE3SetEis
_ZN3art8verifier12RegisterLine33MarkAllRegistersAsConflictsExceptEPNS0_14MethodVerifierEj
artAllocObjectFromCodeResolvedTLAB
_ZN3art6mirror5Class16IsThrowableClassEv
_ZN3art11interpreter18PrevFrameWillRetryEPNS_6ThreadERKNS_11ShadowFrameE
_ZN3art9OatHeader11kFalseValueE
artIsAssignableFromCode
_ZN3art6mirror14PrimitiveArrayIhE15AllocateAndFillEPNS_6ThreadEPKhm
_ZN3artlsERNSt3__113basic_ostreamIcNS0_11char_traitsIcEEEENS_11ImageHeader9ImageRootE
_ZN3art11interpreter27DoVarHandleGetAndBitwiseAndEPNS_6ThreadERNS_11ShadowFrameEPKNS_11InstructionEtPNS_6JValueE
_ZN3art21QuickExceptionHandler21DeoptimizeSingleFrameENS_18DeoptimizationKindE
artAllocStringObjectTLAB
_ZN3art6HandleINS_6mirror14PrimitiveArrayIhEEE13ObjectFromGdbEv
_ZN3art11interpreter16UnstartedRuntime32UnstartedUnsafeGetObjectVolatileEPNS_6ThreadEPNS_11ShadowFrameEPNS_6JValueEm
_ZN3art6mirror5Class11ComputeNameENS_6HandleIS1_EE
_ZN3art21QuickExceptionHandler15DeoptimizeStackEb
_ZN3art11ClassLinker17ResolveMethodTypeEPNS_6ThreadENS_3dex10ProtoIndexEPNS_9ArtMethodE
_ZNK3art18ClassLoaderContext21EncodeContextInternalERKNS0_15ClassLoaderInfoERKNSt3__112basic_stringIcNS4_11char_traitsIcEENS4_9allocatorIcEEEEbPS1_RNS4_19basic_ostringstreamIcS7_S9_EE
_ZN3art3jit3Jit13PrepareForOsrEPNS_9ArtMethodEjPj
_ZN3art9JavaVMExt9JniAbortFEPKcS2_z
_ZNK3art22InstructionSetFeatures30AsX86_64InstructionSetFeaturesEv
_ZN3art5Locks26allocated_thread_ids_lock_E
_ZNK3art9OatHeader27GetQuickToInterpreterBridgeEv
_ZN3art6mirror14PrimitiveArrayItE3GetEi
_ZN3art7Monitor16SetLockOwnerInfoEPNS_9ArtMethodEjPNS_6ThreadE
_ZN3art12FaultManager26HandleFaultByOtherHandlersEiP7siginfoPv
_ZN3art6mirror14PrimitiveArrayIhE7MemmoveEiNS_6ObjPtrIS2_EEii
_ZN3art2gc18ReferenceProcessor28MakeCircularListIfUnenqueuedENS_6ObjPtrINS_6mirror18FinalizerReferenceEEE
_ZNK3art10ThreadList22VisitReflectiveTargetsEPNS_22ReflectiveValueVisitorE
_ZN3com7android4apex8ApexInfo4readEPN8tinyxml210XMLElementE
_ZN3art10ObjectLockINS_6mirror5ClassEE22WaitIgnoringInterruptsEv
_ZNK3art11ElfFileImplINS_10ElfTypes32EE10GetRelaNumER10elf32_shdr
_ZN3art3jni12JniIdManager14EncodeMethodIdEPNS_9ArtMethodE
_ZTVN3art18DexCacheSourceInfoE
_ZN3art17InvokeWithVarArgsIPNS_9ArtMethodEEENS_6JValueERKNS_33ScopedObjectAccessAlreadyRunnableEP8_jobjectT_St9__va_list
artAllocObjectFromCodeWithChecksDlMallocInstrumented
_ZN3art2gc9collector17ConcurrentCopying25RecordLiveStackFreezeSizeEPNS_6ThreadE
_ZN3art15instrumentation15Instrumentation21DisableDeoptimizationEPKc
_ZN3art38register_java_lang_invoke_MethodHandleEP7_JNIEnv
_ZN3art8verifier10LongHiType7DestroyEv
artGetByteStaticFromCode
_ZN3art5Locks9dex_lock_E
_ZN3art11ClassLinker21CreatePathClassLoaderEPNS_6ThreadERKNSt3__16vectorIPKNS_7DexFileENS3_9allocatorIS7_EEEE
_ZN3art2gc9collector11MarkCompact12ReclaimPhaseEv
_ZN3art2gc9collector16PartialMarkSweep11BindBitmapsEv
_ZN3art11interpreter16UnstartedRuntime29UnstartedThreadGetNativeStateEPNS_6ThreadEPNS_11ShadowFrameEPNS_6JValueEm
_ZN3art9JavaVMExt18AddEnvironmentHookEPFiPS0_PPviE
_ZN3art18RuntimeArgumentMap24DumpNativeStackOnSigQuitE
_ZNK3art8verifier11IntegerType4DumpEv
_ZNK3art2gc10accounting11SpaceBitmapILm4096EE9HeapBeginEv
_ZN3art6mirror8ClassExt20ExtendObsoleteArraysENS_6HandleIS1_EEPNS_6ThreadEj
_ZN3art18RuntimeArgumentMap9ClassPathE
NterpGetClass
_ZN3art7ElfFileD2Ev
_ZNK3art2gc10accounting9CardTable22CheckAddrIsInCardTableEPKh
_ZN3art2gc9collector11MarkCompactC2EPNS0_4HeapE
_ZN3artlsERNSt3__113basic_ostreamIcNS0_11char_traitsIcEEEENS_15IndirectRefKindE
_ZN3art6mirror9VarHandle21GetAccessModesBitMaskEv
_ZNK3art6Thread11DumpFromGdbEv
_ZN3art16WellKnownClasses22java_lang_Thread_groupE
_ZNK3art11ElfFileImplINS_10ElfTypes64EE16GetProgramHeaderEj
_ZN3art11MemMapArena7ReleaseEv
_ZN3art12ProfileSaver11WakeUpSaverEv
_ZNK3art9OatHeader24GetNterpTrampolineOffsetEv
_ZTVN3art6detail20CmdlineParseArgumentINS_12JdwpProviderEEE
artGetObjStaticFromCode
_ZN3art9hiddenapi6detail30HandleCorePlatformApiViolationINS_8ArtFieldEEEbPT_RKNS0_13AccessContextENS0_12AccessMethodENS0_17EnforcementPolicyE
_ZN3art10ThreadList19SuspendThreadByPeerEP8_jobjectNS_13SuspendReasonEPb
_ZTVN3art28UnlinkStartupDexCacheVisitorE
_ZN3com7android3art9Classpath4readEPN8tinyxml210XMLElementE
_ZNK3art16CumulativeLogger4DumpERNSt3__113basic_ostreamIcNS1_11char_traitsIcEEEE
_ZN3art11ClassLinker25FinishCoreArrayClassSetupENS_9ClassRootE
_ZNK3art7OatFile13GetOatDexFileEPKcPKjPNSt3__112basic_stringIcNS5_11char_traitsIcEENS5_9allocatorIcEEEE
_ZNK3art7Runtime43AddCurrentRuntimeFeaturesAsDex2OatArgumentsEPNSt3__16vectorINS1_12basic_stringIcNS1_11char_traitsIcEENS1_9allocatorIcEEEENS6_IS8_EEEE
_ZN3art2gc5spacelsERNSt3__113basic_ostreamIcNS2_11char_traitsIcEEEENS1_11RegionSpace11RegionStateE
_ZN3art6Thread31kStackOverflowImplicitCheckSizeE
_ZN3art6mirror5Class28SetStatusForPrimitiveOrArrayENS_11ClassStatusE
_ZN3art2gc5space13DlMallocSpace16CreateFromMemMapEONS_6MemMapERKNSt3__112basic_stringIcNS5_11char_traitsIcEENS5_9allocatorIcEEEEmmmmb
_ZN3art22InstructionSetFeatures10FromBitmapENS_14InstructionSetEj
_ZN3art15instrumentationlsERNSt3__113basic_ostreamIcNS1_11char_traitsIcEEEENS0_15Instrumentation20InstrumentationEventE
_ZNK3art2gc10accounting11SpaceBitmapILm8EE9HeapBeginEv
_ZN3art15instrumentation15Instrumentation19IsDeoptimizedMethodEPNS_9ArtMethodE
_ZNK3art9OatHeader18IsNativeDebuggableEv
_ZTVN3art7OatFileE
artThrowClassCastException
_ZNK3com7android3art9Component12getChecksumsEv
_ZNK3art11ElfFileImplINS_10ElfTypes32EE23GetDynamicProgramHeaderEv
_ZN3art2gc9collector9SemiSpace11BindBitmapsEv
_ZN3art2gc10accounting27ModUnionTableReferenceCache4DumpERNSt3__113basic_ostreamIcNS3_11char_traitsIcEEEE
_ZN3art2gc10accounting11SpaceBitmapILm4096EE13OffsetToIndexEm
_ZN3art11ClassLinker17EnsureInitializedEPNS_6ThreadENS_6HandleINS_6mirror5ClassEEEbb
_ZN3art11ClassLinker10FinishInitEPNS_6ThreadE
_ZNK3art7ElfFile13GetLoadedSizeEPmPNSt3__112basic_stringIcNS2_11char_traitsIcEENS2_9allocatorIcEEEE
_ZN3art2gc13TaskProcessorD1Ev
_ZN3art11interpreter16UnstartedRuntime22UnstartedLongParseLongEPNS_6ThreadEPNS_11ShadowFrameEPNS_6JValueEm
_ZN3art6mirror10MethodType20IsInPlaceConvertibleENS_6ObjPtrIS1_EE
_ZN3art8verifier12VerifierDeps26GetClassDescriptorStringIdERKNS_7DexFileENS_6ObjPtrINS_6mirror5ClassEEE
CpuFeatures_OpenFile
_ZN3art16WellKnownClasses36java_lang_invoke_MethodHandle_asTypeE
_ZN3art18RuntimeArgumentMap26MadviseWillNeedArtFileSizeE
_ZN3art3Dbg24DdmSetThreadNotificationEb
_ZNK3art11ElfFileImplINS_10ElfTypes64EE7GetRelaER10elf64_shdrj
_ZN3art2gc9collector15StickyMarkSweep20MarkReachableObjectsEv
_ZN3art16FlagRuntimeAbortEv
_ZN3art11ClassLinker13DoResolveTypeINS_6ObjPtrINS_6mirror5ClassEEEEES5_NS_3dex9TypeIndexET_
_ZN3art6mirror5Class16PrettyDescriptorENS_6ObjPtrIS1_EE
_ZN3art8VdexFile11WriteToDiskERKNSt3__112basic_stringIcNS1_11char_traitsIcEENS1_9allocatorIcEEEERKNS1_6vectorIPKNS_7DexFileENS5_ISD_EEEERKNS_8verifier12VerifierDepsEPS7_
_ZNK3art8verifier12DoubleLoType4DumpEv
_ZNK3art12StackVisitor27GetShouldDeoptimizeFlagAddrEv
_ZNK3art11ElfFileImplINS_10ElfTypes64EE17FindSectionByNameERKNSt3__112basic_stringIcNS3_11char_traitsIcEENS3_9allocatorIcEEEE
_ZN3art2gc9collector16GarbageCollector10RecordFreeERKNS1_14ObjectBytePairE
_ZN3art5Trace17FlushThreadBufferEPNS_6ThreadE
_ZN3art11ClassLinker38FindClassInBaseDexClassLoaderClassPathEPNS_6ThreadEPKcmNS_6HandleINS_6mirror11ClassLoaderEEEPNS_6ObjPtrINS6_5ClassEEE
_ZNK3art2gc10accounting11SpaceBitmapILm4096EE9HeapLimitEv
_ZN3art2gc5space19LargeObjectMapSpaceC1ERKNSt3__112basic_stringIcNS3_11char_traitsIcEENS3_9allocatorIcEEEE
_ZN3art7Runtime20SetRuntimeDebugStateENS0_17RuntimeDebugStateE
_ZTVN3art16NthCallerVisitorE
_ZN3art23MethodHandleInvokeExactEPNS_6ThreadERNS_11ShadowFrameENS_6HandleINS_6mirror12MethodHandleEEENS4_INS5_10MethodTypeEEEPKNS_19InstructionOperandsEPNS_6JValueE
_ZN3art18RuntimeArgumentMap23JITCodeCacheMaxCapacityE
_ZN3art7Runtime22VisitReflectiveTargetsEPNS_22ReflectiveValueVisitorE
_ZN3art2gc18ReferenceProcessor11UpdateRootsEPNS_15IsMarkedVisitorE
_ZNSt3__110__function6__funcIPFbRKNS_12basic_stringIcNS_11char_traitsIcEENS_9allocatorIcEEEEjENS5_ISB_EESA_EclES9_Oj
_ZTVN3art21RuntimeArgumentMapKeyIPNSt3__16vectorINS1_10unique_ptrIKNS_7DexFileENS1_14default_deleteIS5_EEEENS1_9allocatorIS8_EEEEEE
_ZNSt3__113basic_filebufIcNS_11char_traitsIcEEE9pbackfailEi
_ZN3art17ReaderWriterMutexD2Ev
_ZN3art11MemMapArenaC1EmbPKc
_ZNK3art11ImageHeader14GetImageMethodENS0_11ImageMethodE
_ZN3art2gc9collector16GarbageCollector21ExtractRssFromMincoreEPNSt3__14listINS3_4pairIPvS6_EENS3_9allocatorIS7_EEEE
_ZN3art16WellKnownClasses24java_nio_Buffer_positionE
_ZN3art5Trace10the_trace_E
_ZNK3art2gc10accounting11SpaceBitmapILm8EE9HeapLimitEv
_ZTVN3art19ReferenceMapVisitorINS_19RootCallbackVisitorELb1EEE
_ZN3art8verifier9FloatType9instance_E
_ZN3art2gc20AllocRecordObjectMap16RecordAllocationEPNS_6ThreadEPNS_6ObjPtrINS_6mirror6ObjectEEEm
_ZN3art2gc5space10ImageSpace18CreateFromAppImageEPKcPKNS_7OatFileENS_8ArrayRefIKPS2_EEPNSt3__112basic_stringIcNSC_11char_traitsIcEENSC_9allocatorIcEEEE
_ZNK3com7android4apex8ApexInfo14hasVersionCodeEv
_ZN3art2gc9collector9MarkSweep10SweepArrayEPNS0_10accounting11AtomicStackINS_6mirror6ObjectEEEb
_ZN3art6mirror12MethodHandle11VisitTargetEPNS_22ReflectiveValueVisitorE
_ZN3art3jni19LocalReferenceTable18SetCheckJniEnabledEb
_ZN3art11ClassLinker24FillIMTAndConflictTablesENS_6ObjPtrINS_6mirror5ClassEEE
_ZN3art6mirror6String21AllocFromModifiedUtf8EPNS_6ThreadEiPKci
_ZNK3art14OatFileManager32FindOpenedOatFileFromDexLocationERKNSt3__112basic_stringIcNS1_11char_traitsIcEENS1_9allocatorIcEEEE
_ZN3art6mirror17StackTraceElement5AllocEPNS_6ThreadENS_6HandleINS0_6StringEEES6_S6_i
_ZNK3art9OatHeader33GetJniDlsymLookupTrampolineOffsetEv
_ZNK3art7OatFile12IsDebuggableEv
_ZN3art6Thread6NotifyEv
_ZN3art2gc20AllocRecordObjectMap23SetAllocTrackingEnabledEb
_ZN3art2gc5space11RegionSpace6Region5ClearEb
_ZNK3art6mirror14PrimitiveArrayIsE7GetDataEv
_ZN3art32register_java_lang_ref_ReferenceEP7_JNIEnv
_ZN3art23OatFileAssistantContext15GetApexVersionsEv
_ZN3art10ObjectLockINS_6mirror6ObjectEEC1EPNS_6ThreadENS_6HandleIS2_EE
_ZN3art11TransactionD2Ev
_ZNK3art2gc5space11RegionSpace6Region30GetLongestConsecutiveFreeBytesEv
_ZN3art2ti9AgentSpec4LoadEPiPNS0_9LoadErrorEPNSt3__112basic_stringIcNS5_11char_traitsIcEENS5_9allocatorIcEEEE
_ZNK3com7android3art12KeyValuePair5writeERNSt3__113basic_ostreamIcNS3_11char_traitsIcEEEERKNS3_12basic_stringIcS6_NS3_9allocatorIcEEEE
_ZN3art9ArtMethod18IsImagePointerSizeENS_11PointerSizeE
_ZNK3art6Thread13DumpJavaStackERNSt3__113basic_ostreamIcNS1_11char_traitsIcEEEEbb
create_mspace_with_base
_ZN3art2gc4Heap14GetPercentFreeEv
_ZNK3art7Runtime21IsAsyncDeoptimizeableEPNS_9ArtMethodEm
_ZN3art11interpreter16UnstartedRuntime31UnstartedJNIObjectInternalCloneEPNS_6ThreadEPNS_9ArtMethodEPNS_6mirror6ObjectEPjPNS_6JValueE
_ZNK3art8verifier26UninitializedReferenceType4DumpEv
_ZN3art5Mutex32WakeupToRespondToEmptyCheckpointEv
_ZN3art11ClassLinkerC1EPNS_11InternTableEb
_ZNSt3__112__hash_tableINS_17__hash_value_typeINS_12basic_stringIcNS_11char_traitsIcEENS_9allocatorIcEEEES7_EENS_22__unordered_map_hasherIS7_S8_NS_4hashIS7_EELb1EEENS_21__unordered_map_equalIS7_S8_NS_8equal_toIS7_EELb1EEENS5_IS8_EEE25__emplace_unique_key_argsIS7_JRKNS_21piecewise_construct_tENS_5tupleIJRKS7_EEENSN_IJEEEEEENS_4pairINS_15__hash_iteratorIPNS_11__hash_nodeIS8_PvEEEEbEERKT_DpOT0_
_ZN3art18RuntimeArgumentMap25JITInvokeTransitionWeightE
_ZNK3art9OatHeader11KeyHasValueEPKcS2_m
_ZN3art16RuntimeCallbacks29RemoveThreadLifecycleCallbackEPNS_23ThreadLifecycleCallbackE
_ZN3art11ElfFileImplINS_10ElfTypes64EE19IsSymbolSectionTypeEj
_ZNK3art11ClassLinker31SetEntryPointsForObsoleteMethodEPNS_9ArtMethodE
_ZN3art2gc5space13RosAllocSpace4FreeEPNS_6ThreadEPNS_6mirror6ObjectE
_ZN3art6mirror6String22PrettyStringDescriptorENS_6ObjPtrIS1_EE
_ZN3art41register_dalvik_system_BaseDexClassLoaderEP7_JNIEnv
_ZNK3art7Runtime23RegisterSensitiveThreadEv
_ZN3art10OatDexFileC2EPKNS_7OatFileEPKhjRKNSt3__112basic_stringIcNS6_11char_traitsIcEENS6_9allocatorIcEEEESE_S5_
_ZN3art8verifier20PreciseReferenceTypeC2ENS_6ObjPtrINS_6mirror5ClassEEERKNSt3__117basic_string_viewIcNS6_11char_traitsIcEEEEt
_ZNK3com7android4apex8ApexInfo25hasPreinstalledModulePathEv
_ZN3art2gc10accounting9CardTable6CreateEPKhm
_ZTVN3art2gc5space21MemoryToolMallocSpaceINS1_13RosAllocSpaceELm8ELb0ELb1EEE
_ZN3art3jit3Jit19LoadCompilerLibraryEPNSt3__112basic_stringIcNS2_11char_traitsIcEENS2_9allocatorIcEEEE
_ZN3art7Monitor33SignalWaiterAndReleaseMonitorLockEPNS_6ThreadE
_ZN3art6Thread22GetPeerFromOtherThreadEv
_ZNK3com7android3art10ModuleInfo19getLastUpdateMillisEv
_ZN3art16WellKnownClasses7ToClassEP7_jclass
_ZTVN3art2gc32IdentityMarkHeapReferenceVisitorE
_ZN3art12ProfileSaverD1Ev
_ZN3art7Monitor15IsValidLockWordENS_8LockWordE
_ZN3art2gc9collector16GarbageCollector19DumpPerformanceInfoERNSt3__113basic_ostreamIcNS3_11char_traitsIcEEEE
_ZTVN3art6detail20CmdlineParseArgumentINSt3__16vectorINS_6PluginENS2_9allocatorIS4_EEEEEE
_ZTVNSt3__120__shared_ptr_emplaceIN3art2gc5space20LargeObjectSpaceTypeENS_9allocatorIS4_EEEE
_ZTVN3art8verifier11IntegerTypeE
_ZN3art29HandleUnexpectedSignalAndroidEiP7siginfoPv
_ZN3art6HandleINS_6mirror9ReferenceEE10GetFromGdbEv
_ZN3art7Runtime21ScopedThreadPoolUsageC2Ev
_ZTVN3art8verifier20UnresolvedSuperClassE
_ZNK3art11ElfFileImplINS_10ElfTypes32EE12ValidPointerEPKh
_ZN3art12ProfileSaver3RunEv
_ZN3art25ArmInstructionSetFeatures14FromCppDefinesEv
_ZN3art18ClassLoaderContext6CreateERKNSt3__112basic_stringIcNS1_11char_traitsIcEENS1_9allocatorIcEEEE
_ZN3art5hprof5Hprof14MarkRootObjectEPKNS_6mirror6ObjectEP8_jobjectNS0_12HprofHeapTagEj
_ZN3art3jni12JniIdManager22GetLinearSearchStartIdINS_8ArtFieldEEEmNS_16ReflectiveHandleIT_EE
_ZN3art7Runtime47GetPreAllocatedOutOfMemoryErrorWhenThrowingOOMEEv
_ZN3art2gc10accounting17MemoryRangeBitmapILm16EE16AtomicTestAndSetEm
_ZN3art6Thread18ThrowNewExceptionVEPKcS2_St9__va_list
_ZN3art3jit15JitMemoryRegion19ProtectZygoteMemoryEiPNSt3__112basic_stringIcNS2_11char_traitsIcEENS2_9allocatorIcEEEE
_ZTCNSt3__118basic_stringstreamIcNS_11char_traitsIcEENS_9allocatorIcEEEE16_NS_13basic_ostreamIcS2_EE
_ZNK3art12StackVisitor9GetMethodEv
_ZN3art15CompatFrameworkC2Ev
_ZN3art6HandleINS_6mirror9ThrowableEE10GetFromGdbEv
_ZN3art8verifier14MethodVerifier16FindLocksAtDexPcEPNS_9ArtMethodEjPNSt3__16vectorINS1_11DexLockInfoENS4_9allocatorIS6_EEEEj
_ZN3art9OatHeader34SetQuickResolutionTrampolineOffsetEj
_ZTVN3art8verifier13PrimitiveTypeE
_ZNSt3__113basic_filebufIcNS_11char_traitsIcEEED0Ev
_ZN3art2gc9collector9SemiSpace16SweepSystemWeaksEv
_ZTVN3art2gc20ClearedReferenceTaskE
_ZN3art11interpreter16UnstartedRuntime23UnstartedMemoryPeekLongEPNS_6ThreadEPNS_11ShadowFrameEPNS_6JValueEm
_ZN3art8verifier12RegTypeCache8ShutDownEv
_ZN3art7metrics15MetricsReporterD0Ev
_ZNK3art11ElfFileImplINS_10ElfTypes32EE19GetProgramHeaderNumEv
_ZN3art2gc5space13FreeListSpaceD1Ev
_ZN3art6HandleINS_6mirror10MethodTypeEE13ObjectFromGdbEv
_ZTVN3art29JniTransitionReferenceVisitorILb0EEE
_ZN3art10ThreadListD2Ev
_ZN3art8verifier12RegisterLine22VerifyRegisterTypeWideEPNS0_14MethodVerifierEjRKNS0_7RegTypeES6_
_ZNK3art18ClassLoaderContext13EncodeContextERKNSt3__112basic_stringIcNS1_11char_traitsIcEENS1_9allocatorIcEEEEbPS0_
_ZN3art2gc18ReferenceProcessor11GetReferentEPNS_6ThreadENS_6ObjPtrINS_6mirror9ReferenceEEE
_ZNK3art11ElfFileImplINS_10ElfTypes32EE27GetSectionNameStringSectionEv
_ZTTNSt3__118basic_stringstreamIcNS_11char_traitsIcEENS_9allocatorIcEEEE
_ZNK3com7android3art21SystemServerComponent5writeERNSt3__113basic_ostreamIcNS3_11char_traitsIcEEEERKNS3_12basic_stringIcS6_NS3_9allocatorIcEEEE
_ZN3art12FaultHandlerC2EPNS_12FaultManagerE
_ZN3art2gc5space13RosAllocSpace27RevokeAllThreadLocalBuffersEv
_ZNK3art3jit3Jit15CanEncodeMethodEPNS_9ArtMethodEb
_ZN3art6mirror9VarHandle29PrettyDescriptorForAccessModeENS1_10AccessModeE
_ZN3art5Mutex9DumpStackEPNS_6ThreadEmm
_ZNK3art9ExecUtils14GetTicksPerSecEv
_ZN3art6Thread9ResetTlabEv
_ZN3art3Dbg14SetJdwpAllowedEb
_ZN3art2gc4Heap11AddHeapTaskEPNS0_8HeapTaskE
artJniMethodEntryHook
_ZN3art6mirror5Class16PrettyDescriptorEv
_ZN3art15CompatFramework15IsChangeEnabledEm
_ZN3art2gc9collector9SemiSpace9MarkRootsEv
_ZN3com7android3art9CacheInfo4readEPN8tinyxml210XMLElementE
_ZNK3com7android3art9CacheInfo23hasDex2oatBootClasspathEv
_ZN3art11annotations26getRecordAnnotationElementENS_6HandleINS_6mirror5ClassEEES4_PKc
_ZTVN3art21RuntimeArgumentMapKeyINS_25MillisecondsToNanosecondsEEE
_ZNK3art8VdexFile15OpenAllDexFilesEPNSt3__16vectorINS1_10unique_ptrIKNS_7DexFileENS1_14default_deleteIS5_EEEENS1_9allocatorIS8_EEEEPNS1_12basic_stringIcNS1_11char_traitsIcEENS9_IcEEEE
_ZN3art8verifier12RegisterLine10PopMonitorEPNS0_14MethodVerifierEj
_ZN3art12TimingLogger9EndTimingEv
_ZN3art30ThrowIndexOutOfBoundsExceptionEii
_ZNK3art11Transaction15WriteConstraintENS_6ObjPtrINS_6mirror6ObjectEEE
_ZN3art16RuntimeCallbacks22VisitReflectiveTargetsEPNS_22ReflectiveValueVisitorE
mspace_malloc
_ZN3art16OatFileAssistant11OatFileInfo12IsExecutableEv
_ZN3art13ObjectTryLockINS_6mirror6ObjectEEC2EPNS_6ThreadENS_6HandleIS2_EE
_ZNK3art7metrics15MetricsReporter25IsMetricsReportingEnabledERKNS0_11SessionDataE
_ZTVN3art22FetchStackTraceVisitorE
_ZNK3com7android3art10ModuleInfo19hasLastUpdateMillisEv
_ZN3art11ElfFileImplINS_10ElfTypes64EEC2EPN9unix_file6FdFileEbb
_ZN3art2gc9collector15StickyMarkSweep19MarkConcurrentRootsENS_14VisitRootFlagsE
_ZN3art2gc4Heap19RequestConcurrentGCEPNS_6ThreadENS0_7GcCauseEbj
_ZN3art2gc5space16BumpPointerSpaceC2ERKNSt3__112basic_stringIcNS3_11char_traitsIcEENS3_9allocatorIcEEEEONS_6MemMapE
_ZN3art2gc5space10ImageSpace15BootImageLayout19VerifyImageLocationENS_8ArrayRefIKNSt3__112basic_stringIcNS5_11char_traitsIcEENS5_9allocatorIcEEEEEEPmPSB_
_ZNK3art6mirror14PrimitiveArrayIiE7GetDataEv
_ZNK3art14DexRegisterMap4DumpEPNS_31VariableIndentationOutputStreamE
_ZN3art15MemMapArenaPoolC2EbPKc
_ZN3art6mirror5Class29FindAccessibleInterfaceMethodEPNS_9ArtMethodENS_11PointerSizeE
mspace_set_footprint_limit
_ZN3art6HandleINS_6mirror9ThrowableEE13ObjectFromGdbEv
_ZNK3art25X86InstructionSetFeatures16GetFeatureStringEv
artAllocStringFromBytesFromCodeRosAllocInstrumented
artGetCharStaticFromCode
_ZNK3art2gc4Heap20IsValidObjectAddressEPKv
_ZN3art11interpreter16UnstartedRuntime30UnstartedJNIJdkUnsafePutObjectEPNS_6ThreadEPNS_9ArtMethodEPNS_6mirror6ObjectEPjPNS_6JValueE
_ZN3art11OatFileBase8LoadVdexEiRKNSt3__112basic_stringIcNS1_11char_traitsIcEENS1_9allocatorIcEEEEbbPS7_
_ZN3artlsERNSt3__113basic_ostreamIcNS0_11char_traitsIcEEEENS_9LockLevelE
_ZN3artlsERNSt3__113basic_ostreamIcNS0_11char_traitsIcEEEENS_10ThreadFlagE
_ZN3art11ClassLinker26CreateWellKnownClassLoaderEPNS_6ThreadERKNSt3__16vectorIPKNS_7DexFileENS3_9allocatorIS7_EEEENS_6HandleINS_6mirror5ClassEEENSD_INSE_11ClassLoaderEEENSD_INSE_11ObjectArrayISH_EEEESL_
_ZN3art11interpreter16UnstartedRuntime17UnstartedMathCeilEPNS_6ThreadEPNS_11ShadowFrameEPNS_6JValueEm
_ZN3art37register_java_lang_reflect_ExecutableEP7_JNIEnv
_ZN3art27Arm64InstructionSetFeatures14FromCppDefinesEv
_ZN3art6HandleINS_6mirror11ObjectArrayINS1_11ClassLoaderEEEE13ObjectFromGdbEv
_ZNK3art12StackVisitor7GetVRegEPNS_9ArtMethodEtNS_8VRegKindEPjNSt3__18optionalINS_19DexRegisterLocationEEEb
_ZNK3com7android3art9Component5writeERNSt3__113basic_ostreamIcNS3_11char_traitsIcEEEERKNS3_12basic_stringIcS6_NS3_9allocatorIcEEEE
_ZN3art2gc9collector11MarkCompact5SweepEb
_ZN3art2gc9collector9SemiSpace10ScanObjectEPNS_6mirror6ObjectE
_ZThn136_N3art2gc5space13RosAllocSpaceD0Ev
_ZNK3art14OatFileManager15GetBootOatFilesEv
_ZN3art21AppImageLoadingHelper6UpdateEPNS_11ClassLinkerEPNS_2gc5space10ImageSpaceENS_6HandleINS_6mirror11ClassLoaderEEENS7_INS8_11ObjectArrayINS8_8DexCacheEEEEE
_ZN3art15instrumentation15Instrumentation11AddListenerEPNS0_23InstrumentationListenerEj
_ZN3art16WellKnownClasses28java_lang_ThreadGroup_groupsE
_ZN3art11ClassLinker32FindClassInSharedLibrariesHelperEPNS_6ThreadEPKcmNS_6HandleINS_6mirror11ClassLoaderEEEPNS_8ArtFieldEPNS_6ObjPtrINS6_5ClassEEE
_ZN3art11ClassLinker20FindResolvedFieldJLSENS_6ObjPtrINS_6mirror5ClassEEENS1_INS2_8DexCacheEEENS1_INS2_11ClassLoaderEEEj
_ZN3art16WellKnownClasses21java_lang_Thread_initE
_ZThn8_N3art2gc9collector11MarkCompact8IsMarkedEPNS_6mirror6ObjectE
_ZN3art7Monitor4WaitEPNS_6ThreadElibNS_11ThreadStateE
_ZN3art13GetSignalNameEi
artAllocStringFromStringFromCodeRegion
_ZTVN3art24DumpStackLastTimeTLSDataE
_ZN3art2gc10accounting11SpaceBitmapILm4096EE8CopyFromEPS3_
_ZN3art2gc9collector11MarkCompact15CompactionPhaseEv
_ZN3art5arm64lsERNSt3__113basic_ostreamIcNS1_11char_traitsIcEEEERKNS0_9XRegisterE
_ZN3art22ScopedExceptionStorageD1Ev
_ZN3art3Dbg25DdmSendThreadNotificationEPNS_6ThreadEj
_ZN3art2gc5space10ImageSpace15BootImageLayout14LoadFromSystemENS_14InstructionSetEbPNSt3__112basic_stringIcNS5_11char_traitsIcEENS5_9allocatorIcEEEE
_ZN3art2gc5space13RosAllocSpace8FreeListEPNS_6ThreadEmPPNS_6mirror6ObjectE
_ZTVN3art6detail20CmdlineParseArgumentINS_17ExperimentalFlagsEEE
_ZN3art8verifier14MethodVerifier12VerifyMethodEPNS_6ThreadEPNS_11ClassLinkerEPNS_9ArenaPoolEPNS0_12VerifierDepsEjPKNS_7DexFileENS_6HandleINS_6mirror8DexCacheEEENSD_INSE_11ClassLoaderEEERKNS_3dex8ClassDefEPKNSJ_8CodeItemEjNS0_15HardFailLogModeEjbPNSt3__112basic_stringIcNSR_11char_traitsIcEENSR_9allocatorIcEEEE
_ZN3art22NterpGetReferenceArrayEPPNS_9ArtMethodE
_ZTVN3art21RuntimeArgumentMapKeyINSt3__16vectorINS_6PluginENS1_9allocatorIS3_EEEEEE
_ZN3art2gc10accounting6Bitmap14AllocateMemMapERKNSt3__112basic_stringIcNS3_11char_traitsIcEENS3_9allocatorIcEEEEm
_ZNK3com7android3art12KeyValuePair4getVEv
artInvokeStaticTrampolineWithAccessCheck
_ZN3art2gc9collector11MarkCompact26PrepareCardTableForMarkingEb
_ZNK3com7android3art9Component12hasChecksumsEv
_ZN3art5Locks28instrument_entrypoints_lock_E
_ZN3art24AddNativeDebugInfoForDexEPNS_6ThreadEPKNS_7DexFileE
_ZN3art2gc9allocator8RosAlloc8BulkFreeEPNS_6ThreadEPPvm
_ZN3art16WellKnownClasses26java_lang_ThreadGroup_nameE
_ZN3art17ConditionVariable9BroadcastEPNS_6ThreadE
_ZNK3art11ElfFileImplINS_10ElfTypes32EE17FindDynamicByTypeEi
_ZThn136_N3art2gc5space13RosAllocSpace8FreeListEPNS_6ThreadEmPPNS_6mirror6ObjectE
_ZN3art7Monitor17InflateThinLockedEPNS_6ThreadENS_6HandleINS_6mirror6ObjectEEENS_8LockWordEj
_ZN3art18RuntimeArgumentMap20ThreadSuspendTimeoutE
_ZTVN3art13VariantMapKeyINS_9JniIdTypeEEE
_ZTVNSt3__120__shared_ptr_emplaceIN3art14InstructionSetENS_9allocatorIS2_EEEE
_ZNK3art8verifier20UnresolvedMergedType15CheckInvariantsEv
artAllocStringFromCharsFromCodeBumpPointerInstrumented
_ZN3art11ClassLinker13DoResolveTypeENS_3dex9TypeIndexENS_6HandleINS_6mirror8DexCacheEEENS3_INS4_11ClassLoaderEEE
_ZN3art7Runtime25RecordWriteFieldReferenceEPNS_6mirror6ObjectENS_12MemberOffsetENS_6ObjPtrIS2_EEb
_ZNK3art12StackVisitor8GetDexPcEb
mspace_calloc
_ZNK3art2gc4Heap10DumpSpacesEv
_ZN3art2gc5space13DlMallocSpace15AllocWithGrowthEPNS_6ThreadEmPmS5_S5_
_ZN3art3jni34ScopedEnableSuspendAllJniIdQueriesC1Ev
_ZN3art6mirror6Object17CopyRawObjectDataEPhNS_6ObjPtrIS1_EEm
_ZNK3art9ExecUtils4ExecERKNSt3__16vectorINS1_12basic_stringIcNS1_11char_traitsIcEENS1_9allocatorIcEEEENS6_IS8_EEEEPS8_
_ZN3art12FaultManager18HandleSigsegvFaultEiP7siginfoPv
_ZN3art5Trace13GetOutputModeEv
_ZTVNSt3__118basic_stringstreamIcNS_11char_traitsIcEENS_9allocatorIcEEEE
_ZN3art18RuntimeArgumentMap15HiddenApiPolicyE
_ZTVN3art8verifier9ShortTypeE
_ZN3art31SetQuickAllocEntryPoints_regionEPNS_16QuickEntryPointsEb
_ZN3art12FaultManager24RemoveGeneratedCodeRangeEPKvm
_ZN3art15instrumentation15Instrumentation31InstrumentQuickAllocEntryPointsEv
_ZN3art12StackVisitor11SetVRegPairEPNS_9ArtMethodEtmNS_8VRegKindES3_
_ZN3art11MonitorList3AddEPNS_7MonitorE
artAllocObjectFromCodeWithChecksTLAB
_ZN3art18ClassLoaderContext20ParseClassLoaderSpecERKNSt3__112basic_stringIcNS1_11char_traitsIcEENS1_9allocatorIcEEEEb
_ZN3art2gc10accounting11SpaceBitmapILm4096EED1Ev
_ZN3art2gc4Heap15FlushAllocStackEv
_ZN3art6mirror14PrimitiveArrayIhE3GetEi
_ZN3artlsERNSt3__113basic_ostreamIcNS0_11char_traitsIcEEEENS_12StackVisitor16CountTransitionsE
_ZN3art10ClassTable14InsertWithHashENS_6ObjPtrINS_6mirror5ClassEEEm
_ZN3art18ClassLoaderContext25CheckForDuplicateDexFilesERKNSt3__16vectorIPKNS_7DexFileENS1_9allocatorIS5_EEEE
_ZN3art8verifier8Cat2TypeC2ENS_6ObjPtrINS_6mirror5ClassEEERKNSt3__117basic_string_viewIcNS6_11char_traitsIcEEEEt
_ZN3art9ArtMethod12PrettyMethodEPS0_b
_ZN3art2gc9allocator8RosAlloc12bracketSizesE
_ZN3art2gc4Heap27RevokeAllThreadLocalBuffersEv
_ZN3art3jni12JniIdManager14EncodeMethodIdENS_16ReflectiveHandleINS_9ArtMethodEEE
_ZN3art21QuickExceptionHandler9FindCatchENS_6ObjPtrINS_6mirror9ThrowableEEEb
_ZNK3com7android3art10ModuleInfo14hasVersionNameEv
_ZN3art3Dbg15DdmSendHeapInfoENS0_8HpifWhenE
_ZN3art6Thread22PushStackedShadowFrameEPNS_11ShadowFrameENS_22StackedShadowFrameTypeE
_ZN3art16OatFileAssistant13GetStatusDumpEv
_ZN3art20NonDebuggableClasses21AddNonDebuggableClassEP7_jclass
artSet32InstanceFromCode
_ZN3art12StackVisitorC2EPNS_6ThreadEPNS_7ContextENS0_13StackWalkKindEb
_ZThn8_N3art2gc9collector17ConcurrentCopyingD0Ev
_ZN3art2gc9collector17ConcurrentCopying30ActivateReadBarrierEntrypointsEv
_ZN3art2gc9collector9MarkSweep5SweepEb
_ZN3art3jit12JitCodeCache16AddProfilingInfoEPNS_6ThreadEPNS_9ArtMethodERKNSt3__16vectorIjNS6_9allocatorIjEEEE
_ZNK3art11Transaction9ObjectLog4UndoEPNS_6mirror6ObjectE
artAllocStringFromBytesFromCodeRegionTLABInstrumented
_ZN3art11ClassLinker27AllocStackTraceElementArrayEPNS_6ThreadEm
_ZN3art6HandleINS_6mirror16MethodHandleImplEE13ObjectFromGdbEv
artQuickGetProxyThisObject
_ZN3art25X86InstructionSetFeatures9FromHwcapEb
_ZNK3art11ElfFileImplINS_10ElfTypes64EE11GetFilePathEv
_ZN3art2gc5space11MallocSpace18RegisterRecentFreeEPNS_6mirror6ObjectE
_ZN3art15instrumentation15Instrumentation12UndeoptimizeEPNS_9ArtMethodE
_ZN3art18RuntimeArgumentMap33HSpaceCompactForOOMMinIntervalsMsE
_ZN3art7Runtime15DumpLockHoldersERNSt3__113basic_ostreamIcNS1_11char_traitsIcEEEE
_ZN3art25MaybeUpdateBssMethodEntryEPNS_9ArtMethodENS_15MethodReferenceES1_
_ZN3art36SetQuickAllocEntryPoints_region_tlabEPNS_16QuickEntryPointsEb
mspace_max_footprint
_ZN3art2gc9collector9MarkSweep15InitializePhaseEv
_ZN3art2gc5space11MallocSpace16ClampGrowthLimitEv
_ZN3artlsERNSt3__113basic_ostreamIcNS0_11char_traitsIcEEEENS_15CompilationKindE
_ZN3art9JavaVMExt22DecodeWeakGlobalLockedEPNS_6ThreadEPv
_ZN3art7Runtime5AbortEPKc
_ZNK3com7android4apex8ApexInfo12getIsFactoryEv
_ZNK3art8UContext12DumpX86FlagsERNSt3__113basic_ostreamIcNS1_11char_traitsIcEEEEj
_ZTVN3art26MonitorObjectsStackVisitorE
_ZN3art2gc4Heap16AddRememberedSetEPNS0_10accounting13RememberedSetE
_ZNK3art12StackVisitor23GetRegisterIfAccessibleEjNS_19DexRegisterLocation4KindEPj
_ZN3art22GetJITCodeEntrySymFileEPKNS_12JITCodeEntryE
artAllocStringFromBytesFromCodeRegionTLAB
_ZN3art6mirror5Class9DumpClassERNSt3__113basic_ostreamIcNS2_11char_traitsIcEEEEi
_ZN3art11annotations28FieldIsReachabilitySensitiveERKNS_7DexFileERKNS_3dex8ClassDefEj
_ZN3art2gc4Heap27UpdateGcCountRateHistogramsEv
_ZN3art8verifier13UndefinedType9instance_E
artGetShortStaticFromCode
_ZN3art16WellKnownClasses43org_apache_harmony_dalvik_ddmc_Chunk_lengthE
_ZN3art2ti5Agent17PopulateFunctionsEv
mspace_usable_size
_ZN3art2gc9collector11MarkCompact18MarkNonThreadRootsEPNS_7RuntimeE
_ZNK3art2gc5space11MallocSpace4DumpERNSt3__113basic_ostreamIcNS3_11char_traitsIcEEEE
_ZN3art7Runtime9CreateJitEv
_ZN3art16RuntimeCallbacks16BeginDefineClassEv
_ZNK3art2gc4Heap15MayUseCollectorENS0_13CollectorTypeE
_ZNK3art9OatHeader11GetChecksumEv
_ZN3art9JavaVMExt23FindCodeForNativeMethodEPNS_9ArtMethodEPNSt3__112basic_stringIcNS3_11char_traitsIcEENS3_9allocatorIcEEEEb
_ZN3art6mirror9VarHandle6AccessENS1_10AccessModeEPNS_11ShadowFrameEPKNS_19InstructionOperandsEPNS_6JValueE
_ZTVN3art13VariantMapKeyINS_4UnitEEE
_ZN3art11Transaction34UndoInternStringTableModificationsEv
_ZN3art28InvokeProxyInvocationHandlerERNS_33ScopedObjectAccessAlreadyRunnableEPKcP8_jobjectS5_RNSt3__16vectorI6jvalueNS6_9allocatorIS8_EEEE
artAllocObjectFromCodeInitializedBumpPointerInstrumented
_ZN3art16CumulativeLoggerD1Ev
_ZN3art11ClassLinker10AllocClassILb0EEENS_6ObjPtrINS_6mirror5ClassEEEPNS_6ThreadES5_j
_ZN3art2gc5space13DlMallocSpace19GetObjectsAllocatedEv
_ZThn136_N3art2gc5space11ZygoteSpace28LogFragmentationAllocFailureERNSt3__113basic_ostreamIcNS3_11char_traitsIcEEEEm
_ZTVNSt3__110__function6__funcIZN3art9hiddenapi6detail11GetDexFlagsINS2_8ArtFieldEEEjPT_EUlRKNS2_13ClassAccessor5FieldEE0_NS_9allocatorISD_EEFvSC_EEE
_ZN3art12ProfileSaver25NotifyJitActivityInternalEv
_ZTVN3art5arm6412Arm64ContextE
_ZN3art6mirror5Class11PrettyClassEv
_ZN3art2gc9collector9MarkSweep12ReclaimPhaseEv
_ZN3art5hprof5Hprof13DumpHeapClassEPNS_6mirror5ClassE
_ZN3art11interpreter18CheckStackOverflowEPNS_6ThreadEm
_ZNK3art15instrumentation15Instrumentation19MethodExitEventImplINS_13MutableHandleINS_6mirror6ObjectEEEEEvPNS_6ThreadEPNS_9ArtMethodENSt3__18optionalINSB_17reference_wrapperIKNS_11ShadowFrameEEEEERT_
_ZN3art3jni12JniIdManager8EndDeferEv
_ZN3art6mirror10MethodType12IsExactMatchENS_6ObjPtrIS1_EE
_ZNK3art9OatHeader8GetMagicEv
_ZN3art13ParsedOptions21ProcessSpecialOptionsERKNSt3__16vectorINS1_4pairINS1_12basic_stringIcNS1_11char_traitsIcEENS1_9allocatorIcEEEEPKvEENS7_ISC_EEEEPNS_18RuntimeArgumentMapEPNS2_IS9_NS7_IS9_EEEE
_ZZN3art6MemoryILm1024EE4NameEvE3str
_ZN3art2gc4Heap21CreateMainMallocSpaceEONS_6MemMapEmmm
_ZN3art2gc4Heap36SetDefaultConcurrentStartBytesLockedEv
_ZN3artlsERNSt3__113basic_ostreamIcNS0_11char_traitsIcEEEERKNS_12ImageSectionE
_ZN3art7Monitor21CheckLockOwnerRequestEPNS_6ThreadE
_ZN3art5Trace14DumpThreadListERNSt3__113basic_ostreamIcNS1_11char_traitsIcEEEE
_ZN3art5Trace17RecordMethodEventEPNS_6ThreadEPNS_9ArtMethodENS_11TraceActionEjm
_ZN3art11ClassLinker16UnregisterNativeEPNS_6ThreadEPNS_9ArtMethodE
_ZN3art10ThreadPool13CreateThreadsEv
_ZN3art8verifier12DoubleHiType7DestroyEv
_ZNK3art2gc4Heap19GetObjectsAllocatedEv
_ZN3art11ElfFileImplINS_10ElfTypes32EE4LoadEPN9unix_file6FdFileEbbPNS_6MemMapEPNSt3__112basic_stringIcNS8_11char_traitsIcEENS8_9allocatorIcEEEE
_ZN3art2gc10accounting9CardTableC1EONS_6MemMapEPhm
_ZN3art6HandleINS_6mirror14PrimitiveArrayIdEEE10GetFromGdbEv
_ZN3art6mirror14PrimitiveArrayIsE6MemcpyEiNS_6ObjPtrIS2_EEii
_ZN3art7Runtime21AppendToBootClassPathERKNSt3__112basic_stringIcNS1_11char_traitsIcEENS1_9allocatorIcEEEES9_RKNS1_6vectorINS1_4pairIPKNS_7DexFileENS_6ObjPtrINS_6mirror8DexCacheEEEEENS5_ISJ_EEEE
_ZN3art18ClassLoaderContext12OpenDexFilesERKNSt3__112basic_stringIcNS1_11char_traitsIcEENS1_9allocatorIcEEEERKNS1_6vectorIiNS5_IiEEEEb
_ZTVNSt3__110__function6__funcIN3art13ExecCallbacks6on_endMUliE_ENS_9allocatorIS5_EEFviEEE
_ZTVN3art2gc10accounting31ModUnionTableToZygoteAllocspaceE
_ZN3art18RuntimeArgumentMap6VerifyE
_ZN3art6ThreadD2Ev
artAllocStringFromBytesFromCodeTLABInstrumented
_ZN3com7android3art22SystemServerComponentsC2ENSt3__16vectorINS1_21SystemServerComponentENS3_9allocatorIS5_EEEE
_ZThn296_N3art2gc5space19LargeObjectMapSpace14AllocationSizeEPNS_6mirror6ObjectEPm
artDeliverExceptionFromCode
_ZTVN3art26ComputeGenericJniFrameSizeE
_ZN3art2gc5space13FreeListSpace14RemoveFreePrevEPNS1_14AllocationInfoE
_ZNK3art15instrumentation15Instrumentation35RequiresInstrumentationInstallationENS1_20InstrumentationLevelE
_ZN3art11interpreter16UnstartedRuntime31UnstartedJNIFloatIntBitsToFloatEPNS_6ThreadEPNS_9ArtMethodEPNS_6mirror6ObjectEPjPNS_6JValueE
_ZN3art11interpreter16UnstartedRuntime34UnstartedJNIArrayCreateObjectArrayEPNS_6ThreadEPNS_9ArtMethodEPNS_6mirror6ObjectEPjPNS_6JValueE
_ZNK3art9OatHeader41GetJniDlsymLookupCriticalTrampolineOffsetEv
artAllocArrayFromCodeResolvedTLAB
_ZN3art2gc4Heap17PreGcVerificationEPNS0_9collector16GarbageCollectorE
_ZTVN3art6detail20CmdlineParseArgumentINS_6MemoryILm1EEEEE
_ZN3art2gc9collector16GarbageCollector17ResetMeasurementsEv
_ZN3art16WellKnownClasses32java_nio_Buffer_elementSizeShiftE
_ZN3art13ObjectTryLockINS_6mirror6ObjectEED1Ev
_ZN3art15UpdateReferenceEPNS_6ThreadEP8_jobjectNS_6ObjPtrINS_6mirror6ObjectEEE
_ZTVN3art22InstructionSetFeaturesE
_ZNK3com7android3art9CacheInfo16hasBootClasspathEv
_ZN3art2gc4Heap20SetAllocationRecordsEPNS0_20AllocRecordObjectMapE
_ZN3art11interpreter33DoVarHandleGetAndBitwiseOrAcquireEPNS_6ThreadERNS_11ShadowFrameEPKNS_11InstructionEtPNS_6JValueE
_ZN3art9ArtMethod12PrettyMethodEb
_ZNK3art7OatFile5BeginEv
_ZN3art11ElfFileImplINS_10ElfTypes64EED2Ev
_ZN3art2gc18ReferenceProcessor21ForwardSoftReferencesEPNS_12TimingLoggerE
_ZN3art2gc5space11ZygoteSpace8FreeListEPNS_6ThreadEmPPNS_6mirror6ObjectE
_ZN3art3jit12JitCodeCache21LookupOsrMethodHeaderEPNS_9ArtMethodE
_ZNK3art11Transaction8ArrayLog4UndoEPNS_6mirror5ArrayE
artGetByteInstanceFromCompiledCode
_ZN3art3jit3Jit14DumpForSigQuitERNSt3__113basic_ostreamIcNS2_11char_traitsIcEEEE
_ZN3art16WellKnownClasses30java_nio_ByteBuffer_isReadOnlyE
_ZN3art15DumpNativeStackERNSt3__113basic_ostreamIcNS0_11char_traitsIcEEEERN11unwindstack20AndroidLocalUnwinderEiPKcPNS_9ArtMethodEPvb
_ZN3art5Trace16ExceptionHandledEPNS_6ThreadENS_6HandleINS_6mirror9ThrowableEEE
_ZTTNSt3__114basic_ifstreamIcNS_11char_traitsIcEEEE
artSet64InstanceFromCompiledCode
_ZTVN3art2gc5space26ContinuousMemMapAllocSpaceE
_ZN3art2gc10accounting11SpaceBitmapILm4096EE15ComputeHeapSizeEm
_ZN3art2gc4Heap14CollectGarbageEbNS0_7GcCauseE
_ZN3art16WellKnownClasses42dalvik_annotation_optimization_NeverInlineE
artSetShortInstanceFromCode
artStringBuilderAppend
_ZN3art15instrumentation15Instrumentation19EnableMethodTracingEPKcPNS0_23InstrumentationListenerEb
_ZN3art11interpreter21DoVarHandleSetReleaseEPNS_6ThreadERNS_11ShadowFrameEPKNS_11InstructionEtPNS_6JValueE
_ZN3art16WellKnownClasses25StringInitToStringFactoryEPNS_9ArtMethodE
_ZN3art6mirror5Class22ResolveDirectInterfaceEPNS_6ThreadENS_6HandleIS1_EEj
_ZN3art16OatFileAssistant10IsUpToDateEv
_ZN3art5Trace13GetMethodLineEPNS_9ArtMethodEj
_ZN3art11Transaction9ObjectLog17LogReferenceValueENS_12MemberOffsetEPNS_6mirror6ObjectEb
_ZN3art25X86InstructionSetFeatures10FromBitmapEjb
_ZN3com7android3art22SystemServerComponentsC1ENSt3__16vectorINS1_21SystemServerComponentENS3_9allocatorIS5_EEEE
_ZN3art2gc9collector11MarkCompact17CreateUserfaultfdEb
_ZNK3art11ElfFileImplINS_10ElfTypes64EE27GetSectionNameStringSectionEv
_ZN3art7ElfFileC1EPNS_11ElfFileImplINS_10ElfTypes32EEE
_ZN3art2gc5space16BumpPointerSpace8AlignEndEPNS_6ThreadEmPNS0_4HeapE
_ZN3art11interpreter16UnstartedRuntime24UnstartedIntegerParseIntEPNS_6ThreadEPNS_11ShadowFrameEPNS_6JValueEm
_ZN3art9OatHeader33SetJniDlsymLookupTrampolineOffsetEj
_ZGVZN3art11CmdlineTypeINS_15ParseStringListILc58EEEE12DescribeTypeEvE3str
artSetByteStaticFromCompiledCode
_ZN3art2gc4Heap11RemoveSpaceEPNS0_5space5SpaceE
_ZN3art2gc5space13DlMallocSpace17GetBytesAllocatedEv
_ZN3art11InternTable10InsertWeakENS_6ObjPtrINS_6mirror6StringEEEj
_ZNK3art6Thread24IsJniTransitionReferenceEP8_jobject
_ZN3art6mirror6String11FastIndexOfEii
artSetByteInstanceFromCompiledCode
_ZN3art11ElfFileImplINS_10ElfTypes32EE4OpenEPN9unix_file6FdFileEbbbPNSt3__112basic_stringIcNS6_11char_traitsIcEENS6_9allocatorIcEEEE
_ZN3art2gc10accounting11SpaceBitmapILm4096EE7SetNameERKNSt3__112basic_stringIcNS4_11char_traitsIcEENS4_9allocatorIcEEEE
_ZN3art11interpreter16UnstartedRuntime24InitializeInvokeHandlersEPNS_6ThreadE
_ZN3art8verifier12RegTypeCache24small_precise_constants_E
_ZN3art24ThrowArrayStoreExceptionENS_6ObjPtrINS_6mirror5ClassEEES3_
_ZN3art9JNIEnvExtC1EPNS_6ThreadEPNS_9JavaVMExtE
_ZN3art5Trace12MethodExitedEPNS_6ThreadEPNS_9ArtMethodENSt3__18optionalINS5_17reference_wrapperIKNS_11ShadowFrameEEEEERNS_6JValueE
artAllocStringFromCharsFromCodeRegion
artInvokeInterfaceTrampoline
_ZN3art2gc9collector11MarkCompact16ProcessMarkStackEv
_ZN3art7metrics15MetricsReporter22NotifyStartupCompletedEv
_ZN3art7Monitor12FailedUnlockENS_6ObjPtrINS_6mirror6ObjectEEEjjPS0_
_ZN3art13ParsedOptions5AbortEv
_ZN3art2gc10accounting11SpaceBitmapILm8EE3SetEPKNS_6mirror6ObjectE
_ZN3art25register_java_lang_SystemEP7_JNIEnv
_ZN3art8verifier8CharType14CreateInstanceENS_6ObjPtrINS_6mirror5ClassEEERKNSt3__117basic_string_viewIcNS6_11char_traitsIcEEEEt
_ZN3art6Thread12resume_cond_E
_ZN3art10ClassTable14FreezeSnapshotEv
_ZN3art2ti5AgentC1EOS1_
_ZNK3art8verifier23UnresolvedReferenceType15CheckInvariantsEv
_ZN3art5Locks26user_code_suspension_lock_E
_ZN3art11QuasiAtomic8ShutdownEv
_ZN3art7OatFile8OatClassC1EPKS0_NS_11ClassStatusENS_12OatClassTypeEjPKjPKNS_16OatMethodOffsetsE
_ZNK3art2gc4Heap33CalculateGcWeightedAllocatedBytesEmm
_ZNK3art25ArmInstructionSetFeatures10HasAtLeastEPKNS_22InstructionSetFeaturesE
_ZTVN3art25BuildQuickArgumentVisitorE
_ZNK3art7Runtime19IsActiveTransactionEv
_ZN3art11interpreter14DoVarHandleGetEPNS_6ThreadERNS_11ShadowFrameEPKNS_11InstructionEtPNS_6JValueE
_ZNK3art8verifier23UnresolvedReferenceType4DumpEv
_ZN3art22ClassHierarchyAnalysis42CheckVirtualMethodSingleImplementationInfoENS_6HandleINS_6mirror5ClassEEEPNS_9ArtMethodES6_RNSt3__113unordered_setIS6_NS7_4hashIS6_EENS7_8equal_toIS6_EENS7_9allocatorIS6_EEEENS_11PointerSizeE
_ZN3art11ClassLinker35FindClassInBootClassLoaderClassPathEPNS_6ThreadEPKcmPNS_6ObjPtrINS_6mirror5ClassEEE
_ZN3art2gc4Heap26IncrementDisableThreadFlipEPNS_6ThreadE
_ZN3art11MemMapArenaD2Ev
_ZNK3art15instrumentation15Instrumentation20ExceptionThrownEventEPNS_6ThreadENS_6ObjPtrINS_6mirror9ThrowableEEE
_ZNK3art7metrics15MetricsReporter23ShouldContinueReportingEv
_ZN3art10ObjectLockINS_6mirror5ClassEED2Ev
artAllocStringFromStringFromCodeRegionTLABInstrumented
_ZN3art9ArtMethod19GetObsoleteDexCacheILNS_17ReadBarrierOptionE0EEENS_6ObjPtrINS_6mirror8DexCacheEEEv
_ZN3art26MonitorObjectsStackVisitor10VisitFrameEv
_ZN3art2gc9collector17ConcurrentCopying24IsMarkedInNonMovingSpaceEPNS_6mirror6ObjectE
_ZNK3art8verifier20UnresolvedSuperClass15CheckInvariantsEv
artAllocArrayFromCodeResolvedRosAlloc
_ZN3art8verifier10LongLoType14CreateInstanceENS_6ObjPtrINS_6mirror5ClassEEERKNSt3__117basic_string_viewIcNS6_11char_traitsIcEEEEt
_ZNK3art12StackVisitor16ComputeDexPcListEj
_ZN3artlsERNSt3__113basic_ostreamIcNS0_11char_traitsIcEEEENS_8VRegKindE
_ZN3art17ReaderWriterMutexC2EPKcNS_9LockLevelE
_ZN3art11ClassLinker19RunEarlyRootClinitsEPNS_6ThreadE
_ZN3art16WellKnownClasses38java_lang_annotation_Annotation__arrayE
_ZN3art12ProfileSaver17NotifyJitActivityEv
_ZN3art22InstructionSetFeatures20FromRuntimeDetectionEv
_ZNK3art10SdkChecker16ShouldDenyAccessEPNS_8ArtFieldE
_ZN3art16WellKnownClasses30java_lang_BootClassLoader_initE
_ZNK3art11ElfFileImplINS_10ElfTypes32EE5BeginEv
_ZN3art6mirror14PrimitiveArrayIdE15AllocateAndFillEPNS_6ThreadEPKdm
_ZN3art7Runtime21AppendToBootClassPathERKNSt3__112basic_stringIcNS1_11char_traitsIcEENS1_9allocatorIcEEEES9_RKNS1_6vectorIPKNS_7DexFileENS5_ISD_EEEE
_ZN3art33GetCalleeSaveMethodCallerAndDexPcEPPNS_9ArtMethodENS_14CalleeSaveTypeEPjb
_ZN3art2gc4Heap17CheckGcStressModeEPNS_6ThreadEPNS_6ObjPtrINS_6mirror6ObjectEEE
_ZN3art2gc9collector9MarkSweep10ScanObjectEPNS_6mirror6ObjectE
_ZN3art6mirror14PrimitiveArrayIfE3SetEif
_ZN3art10ClassTable14ReadFromMemoryEPh
_ZN3art2gc9collector17ConcurrentCopying25GrayAllDirtyImmuneObjectsEv
_ZN3art6mirror8ClassExt21SetPreRedefineDexFileEPKNS_7DexFileE
_ZNK3com7android4apex8ApexInfo14getVersionCodeEv
_ZN3art22InstructionSetFeatures11FromVariantENS_14InstructionSetERKNSt3__112basic_stringIcNS2_11char_traitsIcEENS2_9allocatorIcEEEEPS8_
CpuFeatures_StringView_ParsePositiveNumber
_ZTVN3art8RootInfoE
_ZN3art2gc9allocator8RosAlloc3Run8FreeSlotEPv
_ZN3art2gc5space11RegionSpace11RecordAllocEPNS_6mirror6ObjectE
_ZN3art2gc5space13FreeListSpace14AllocationSizeEPNS_6mirror6ObjectEPm
_ZN3art3jit12JitCodeCache19CodeCacheSizeLockedEv
_ZN3art8verifier13ClassVerifier8ShutdownEv
_ZN3art11ClassLinker25MoveClassTableToPreZygoteEv
_ZN3art7Runtime7GetStatEi
_ZN3art22ThrowNoSuchMethodErrorENS_10InvokeTypeENS_6ObjPtrINS_6mirror5ClassEEENSt3__117basic_string_viewIcNS5_11char_traitsIcEEEERKNS_9SignatureE
_ZNK3art11ElfFileImplINS_10ElfTypes64EE21GetStringSectionStartEj
destroy_mspace
_ZN3art2gc9collector11MarkCompact22UpdateClassAfterObjMapEv
_ZNSt3__114__split_bufferIPmNS_9allocatorIS1_EEE10push_frontEOS1_
_ZN3art22ScopedProfilingInfoUseD1Ev
_ZZN3art11CmdlineTypeINS_6MemoryILm1024EEEE12DescribeTypeEvE3str
_ZN3art6Thread12InitStackHwmEv
_ZN3art6mirror8DexCache15SetResolvedTypeENS_3dex9TypeIndexENS_6ObjPtrINS0_5ClassEEE
_ZN3art2gc4Heap16ClearPendingTrimEPNS_6ThreadE
_ZN3art6mirror5Class17FindInstanceFieldENS_6ObjPtrINS0_8DexCacheEEEj
_ZN3art2gc5space13RosAllocSpaceC1EONS_6MemMapEmRKNSt3__112basic_stringIcNS5_11char_traitsIcEENS5_9allocatorIcEEEEPNS0_9allocator8RosAllocEPhSH_SH_mbmb
_ZN3art6mirror14PrimitiveArrayIfE7GetDataEv
_ZN3art16OatFileAssistant18GivenOatFileStatusERKNS_7OatFileE
_ZN3art10ObjectLockINS_6mirror8ClassExtEED2Ev
artAllocStringFromCharsFromCodeTLAB
artGetBooleanStaticFromCode
_ZN3art2gc4Heap22VisitReflectiveTargetsEPNS_22ReflectiveValueVisitorE
_ZN3art7metrics15MetricsReporter17MaybeResetTimeoutEv
_ZN3art10ThreadPool7GetTaskEPNS_6ThreadE
_ZTVN3art8verifier8Cat2TypeE
_ZTVN3art8verifier14UnresolvedTypeE
_ZN3art6mirror6String8GetCharsEiiNS_6HandleINS0_14PrimitiveArrayItEEEEi
_ZN3art2gc9allocatorlsERNSt3__113basic_ostreamIcNS2_11char_traitsIcEEEENS1_8RosAlloc15PageReleaseModeE
_ZN3art5Locks20deoptimization_lock_E
_ZN3art11QuasiAtomic16SwapMutexWrite64EPVll
_ZN3art2gc4Heap18RegisterNativeFreeEP7_JNIEnvm
_ZN3art6mirror5Class22GetStaticFieldIdOffsetEPNS_8ArtFieldE
_ZN3art6mirror5Class20GetAccessFlagsDCheckILNS_17VerifyObjectFlagsE1EEEvv
_ZN3art6Thread4ParkEbl
_ZNK3art8verifier12VerifierDeps4DumpEPNS_31VariableIndentationOutputStreamE
_ZN3art11ClassLinker12FindDexCacheEPNS_6ThreadERKNS_7DexFileE
_ZN3art2gc9collector16GarbageCollector20GetTotalPausedTimeNsEv
_ZNK3art2gc4Heap15IsCompilingBootEv
_ZN3art16RuntimeCallbacks11ThreadStartEPNS_6ThreadE
_ZTVN3art18RuntimeImageHelper22CollectDexCacheVisitorE
_ZN3art25ResolveMethodTypeFromCodeEPNS_9ArtMethodENS_3dex10ProtoIndexE
_ZN3art2gc10accounting11SpaceBitmapILm8EE16AtomicTestAndSetEPKNS_6mirror6ObjectE
_ZThn136_N3art2gc5space11RegionSpace27RevokeAllThreadLocalBuffersEv
_ZN3artlsERNSt3__113basic_ostreamIcNS0_11char_traitsIcEEEENS_11ImageHeader11StorageModeE
_ZNK3art27Arm64InstructionSetFeatures26AddFeaturesFromSplitStringERKNSt3__16vectorINS1_12basic_stringIcNS1_11char_traitsIcEENS1_9allocatorIcEEEENS6_IS8_EEEEPS8_
_ZNK3com7android4apex8ApexInfo12hasIsFactoryEv
_ZNK3art6Thread22AssertPendingExceptionEv
_ZN3art6mirror5Array24ThrowArrayStoreExceptionENS_6ObjPtrINS0_6ObjectEEE
_ZN3art2gc5space26ContinuousMemMapAllocSpace20BindLiveToMarkBitmapEv
_ZN3art11InternTable21SweepInternTableWeaksEPNS_15IsMarkedVisitorE
_ZTVN3art7metrics15MetricsReporterE
_ZNK3art9OatHeader20GetOatDexFilesOffsetEv
_ZN3art12FaultManagerC2Ev
artAllocStringObjectBumpPointer
_ZN3art12TimingLogger11StartTimingEPKc
_ZN3art6mirror5Class25FindDeclaredInstanceFieldENSt3__117basic_string_viewIcNS2_11char_traitsIcEEEES6_
_ZN3art18RuntimeArgumentMap13BootClassPathE
artAllocStringFromStringFromCodeDlMallocInstrumented
_ZN3art9ArtMethod20GetRuntimeMethodNameEv
_ZN3art11InternTable12InternStrongEjPKc
_ZN3art6Thread17ThrowNewExceptionEPKcS2_
_ZN3art2gc9allocator8RosAlloc4TrimEv
_ZN3art11interpreter28CheckInterpreterAsmConstantsEv
_ZN3art6mirror5Class22PopulateEmbeddedVTableENS_11PointerSizeE
_ZN3art7Runtime22InitializeApexVersionsEv
_ZN3art11Transaction16ResolveStringLogC2ENS_6ObjPtrINS_6mirror8DexCacheEEENS_3dex11StringIndexE
_ZN3art10SdkCheckerC1Ev
_ZN3art7Runtime35GetPreAllocatedNoClassDefFoundErrorEv
_ZNK3art11Transaction16ResolveStringLog4UndoEv
_ZN3art2gc9collector17ConcurrentCopying12CopyingPhaseEv
artAllocObjectFromCodeInitializedDlMalloc
_ZN3artlsERNSt3__113basic_ostreamIcNS0_11char_traitsIcEEEERNS_7AppInfoE
_ZN3art17ThrowLinkageErrorENS_6ObjPtrINS_6mirror5ClassEEEPKcz
_ZN3art3Dbg15PostThreadStartEPNS_6ThreadE
_ZN3art11interpreter16UnstartedRuntime29UnstartedReferenceGetReferentEPNS_6ThreadEPNS_11ShadowFrameEPNS_6JValueEm
_ZN3art3armlsERNSt3__113basic_ostreamIcNS1_11char_traitsIcEEEERKNS0_9SRegisterE
_ZN3art5Locks26thread_suspend_count_lock_E
_ZN3art7Runtime23RecordResolveMethodTypeENS_6ObjPtrINS_6mirror8DexCacheEEENS_3dex10ProtoIndexE
_ZN3art6Thread10VisitRootsEPNS_11RootVisitorENS_14VisitRootFlagsE
_ZN3art33SetQuickAllocEntryPointsAllocatorENS_2gc13AllocatorTypeE
_ZN3art7Runtime16InitThreadGroupsEPNS_6ThreadE
_ZN3art10ThreadList18SuspendAllInternalEPNS_6ThreadES2_S2_NS_13SuspendReasonE
_ZN3art2gc5space11RegionSpace6Region11UnfreeLargeEPS2_j
_ZN3art9hiddenapi6detail28ShouldDenyAccessToMemberImplINS_8ArtFieldEEEbPT_NS0_7ApiListENS0_12AccessMethodE
_ZN3art18RuntimeArgumentMap27MadviseWillNeedVdexFileSizeE
_ZN3art7Runtime18StartDaemonThreadsEv
_ZN3art6mirror9Throwable13SetStackStateENS_6ObjPtrINS0_6ObjectEEE
_ZN3art8verifier10LongHiType9instance_E
_ZN3art26ThrowIllegalStateExceptionEPKc
_ZN3art2gc4Heap33IncrementNumberOfBytesFreedRevokeEm
_ZTVN3art5hprof20EndianOutputBufferedE
_ZN3art6mirror14PrimitiveArrayIaE7MemmoveEiNS_6ObjPtrIS2_EEii
_ZNK3art16OatFileAssistant24ClassLoaderContextIsOkayERKNS_7OatFileE
_ZNK3com7android4apex8ApexInfo19getLastUpdateMillisEv
_ZN3art8verifier12RegisterLine19CopyResultRegister1EPNS0_14MethodVerifierEjb
_ZNK3art3jit12JitCodeCache10ContainsPcEPKv
_ZN3art11interpreter24DoVarHandleCompareAndSetEPNS_6ThreadERNS_11ShadowFrameEPKNS_11InstructionEtPNS_6JValueE
_ZN3art2gc5space11ZygoteSpace5ClearEv
_ZN3art10ThreadPool14RemoveAllTasksEPNS_6ThreadE
_ZN3art5Trace6BranchEPNS_6ThreadEPNS_9ArtMethodEji
_ZN3art11ClassLinker10AllocClassEPNS_6ThreadEj
_ZN3art2gc4Heap32RevokeRosAllocThreadLocalBuffersEPNS_6ThreadE
_ZN3art11interpreter16DoFilledNewArrayILb0ELb1EEEbPKNS_11InstructionERKNS_11ShadowFrameEPNS_6ThreadEPNS_6JValueE
_ZN3art12StackVisitor14PrepareSetVRegEPNS_9ArtMethodEtb
_ZN3art16WellKnownClasses28java_lang_Thread_parkBlockerE
artAllocObjectFromCodeWithChecksDlMalloc
artSet64StaticFromCompiledCode
_ZN3art6Thread16DumpThreadOffsetILNS_11PointerSizeE4EEEvRNSt3__113basic_ostreamIcNS3_11char_traitsIcEEEEj
_ZN3art7Runtime21AddGeneratedCodeRangeEPKvm
_ZN3art16WellKnownClasses37java_lang_ThreadGroup_mainThreadGroupE
_ZTVN3art26StackReflectiveHandleScopeILm1ELm0EEE
_ZN3art11annotations14GetNestMembersENS_6HandleINS_6mirror5ClassEEE
_ZN3art2gc9collector11MarkCompact20MarkReachableObjectsEv
_ZN3art10OatDexFile17AssertAotCompilerEv
_ZN3art32ThrowWrappedBootstrapMethodErrorEPKcz
_ZN3art2gc4Heap24PostGcVerificationPausedEPNS0_9collector16GarbageCollectorE
_ZN3art24ThreadResetFunctionTableEPNS_6ThreadEPv
StackLineReader_Initialize
_ZNK3art2gc10accounting17MemoryRangeBitmapILm16EE16AddrFromBitIndexEm
_ZN3art2gc4Heap24JHPCalculateNextTlabSizeEPNS_6ThreadEmmPbPm
_ZN3art12VerifyAccessENS_6ObjPtrINS_6mirror6ObjectEEENS0_INS1_5ClassEEEjS5_
_ZN3art16OatFileAssistant11OatFileInfo15DisplayFilenameEv
_ZN3art6Thread15RunFlipFunctionEPS0_b
_ZN3art8verifier8ByteType9instance_E
_ZN3art7Runtime19MadviseFileForRangeEmmPKhS2_RKNSt3__112basic_stringIcNS3_11char_traitsIcEENS3_9allocatorIcEEEE
_ZN3art11interpreter16DoFilledNewArrayILb0ELb0EEEbPKNS_11InstructionERKNS_11ShadowFrameEPNS_6ThreadEPNS_6JValueE
_ZN3art3jit12JitCodeCache15SweepRootTablesEPNS_15IsMarkedVisitorE
_ZN3art15DumpNativeStackERNSt3__113basic_ostreamIcNS0_11char_traitsIcEEEEiPKcPNS_9ArtMethodEPvb
_ZNK3art11ClassLinker26DenyAccessBasedOnPublicSdkEPNS_9ArtMethodE
_ZN3art7Runtime16RecordWriteArrayEPNS_6mirror5ArrayEmm
_ZN3art2gc10accounting17MemoryRangeBitmapILm16EEC1EONS_6MemMapEmm
_ZN3art2gc9collector12ImmuneRegion5ResetEv
_ZN3art6mirror5Class23FindDeclaredStaticFieldENS_6ObjPtrINS0_8DexCacheEEEj
_ZN3art18RuntimeArgumentMap22BootClassPathLocationsE
_ZNK3com7android3art9CacheInfo5writeERNSt3__113basic_ostreamIcNS3_11char_traitsIcEEEERKNS3_12basic_stringIcS6_NS3_9allocatorIcEEEE
_ZN3art2gc14ReferenceQueue26AtomicEnqueueIfNotEnqueuedEPNS_6ThreadENS_6ObjPtrINS_6mirror9ReferenceEEE
_ZN3art6mirror5Class15FindClassMethodENSt3__117basic_string_viewIcNS2_11char_traitsIcEEEES6_NS_11PointerSizeE
_ZN3art8verifier8ByteType7DestroyEv
_ZN3art16WellKnownClasses29java_lang_ThreadGroup_ngroupsE
_ZNK3art14AotClassLinker26DenyAccessBasedOnPublicSdkEPNS_9ArtMethodE
_ZN3art18ClassLoaderContextD2Ev
_ZN3art2gc9collector9SemiSpace17MarkHeapReferenceEPNS_6mirror13HeapReferenceINS3_6ObjectEEEb
_ZTVN3art2gc13TaskProcessorE
_ZN3art7MonitorC2EPNS_6ThreadES2_NS_6ObjPtrINS_6mirror6ObjectEEEij
_ZN3art15instrumentation15Instrumentation11UpdateStubsEv
_ZN3art11interpreter16UnstartedRuntime31UnstartedClassGetDeclaredMethodEPNS_6ThreadEPNS_11ShadowFrameEPNS_6JValueEm
_ZN3art11interpreter16UnstartedRuntime41UnstartedStringFactoryNewStringFromStringEPNS_6ThreadEPNS_11ShadowFrameEPNS_6JValueEm
_ZN3art3jit12JitCodeCache13IsOsrCompiledEPNS_9ArtMethodE
_ZN3art3jit12JitCodeCacheC1Ev
_ZN3art9JavaVMExt10InitializeEPNSt3__112basic_stringIcNS1_11char_traitsIcEENS1_9allocatorIcEEEE
_ZN3art16OatFileAssistantC1EPKcNS_14InstructionSetEPNS_18ClassLoaderContextEbbPNS_23OatFileAssistantContextE
artGet64InstanceFromCompiledCode
_ZTVN3art33GetQuickReferenceArgumentsVisitorE
_ZN3art2gc10accounting17MemoryRangeBitmapILm8EE3SetEm
_ZNK3art11InternTable8WeakSizeEv
_ZN3art6mirror14PrimitiveArrayIlE3SetEil
_ZTVN3art8verifier13UndefinedTypeE
_ZN3art2gc5space16BumpPointerSpace15UpdateMainBlockEv
_ZN3art2gc9collector9MarkSweep19MarkConcurrentRootsENS_14VisitRootFlagsE
_ZN3art18RuntimeArgumentMap11HeapMaxFreeE
_ZNK3com7android4apex12ApexInfoList5writeERNSt3__113basic_ostreamIcNS3_11char_traitsIcEEEERKNS3_12basic_stringIcS6_NS3_9allocatorIcEEEE
_ZNK3art11ElfFileImplINS_10ElfTypes64EE18CheckSectionsExistEPN9unix_file6FdFileEPNSt3__112basic_stringIcNS6_11char_traitsIcEENS6_9allocatorIcEEEE
_ZN3art2gc9collector16GarbageCollector19GetCurrentIterationEv
_ZN3art6mirror14PrimitiveArrayIiE7MemmoveEiNS_6ObjPtrIS2_EEii
_ZTCNSt3__118basic_stringstreamIcNS_11char_traitsIcEENS_9allocatorIcEEEE0_NS_14basic_iostreamIcS2_EE
_ZN3com7android3art9CacheInfoC2ENSt3__16vectorINS1_16KeyValuePairListENS3_9allocatorIS5_EEEENS4_INS1_10ModuleInfoENS6_IS9_EEEENS4_INS1_14ModuleInfoListENS6_ISC_EEEENS4_INS1_9ClasspathENS6_ISF_EEEESH_NS4_INS1_22SystemServerComponentsENS6_ISI_EEEENS3_8optionalIbEE
_ZN3art12ProfileSaver8DumpInfoERNSt3__113basic_ostreamIcNS1_11char_traitsIcEEEE
_ZZN3art3JNIILb1EE12NewStringUTFEP7_JNIEnvPKcE19prev_bad_input_time
artGetByteStaticFromCompiledCode
_ZN3art11ClassLinker32SizeOfClassWithoutEmbeddedTablesERKNS_7DexFileERKNS_3dex8ClassDefE
_ZN3art7Runtime19FixupConflictTablesEv
_ZTVN3art5hprof5HprofE
_ZN3art3jit15JitMemoryRegion10InitializeEmmbbPNSt3__112basic_stringIcNS2_11char_traitsIcEENS2_9allocatorIcEEEE
CpuFeatures_StringView_IndexOfChar
_ZN3art2gc20AllocRecordObjectMap5ClearEv
_ZNK3art25JniIdReflectiveSourceInfoIP9_jfieldIDvE8DescribeERNSt3__113basic_ostreamIcNS4_11char_traitsIcEEEE
_ZN3art7Monitor9SetObjectENS_6ObjPtrINS_6mirror6ObjectEEE
artThrowStackOverflowFromCode
_ZN3art17ReaderWriterMutex24ExclusiveLockWithTimeoutEPNS_6ThreadEli
_ZN3art2gc9collector9SemiSpace10VisitRootsEPPPNS_6mirror6ObjectEmRKNS_8RootInfoE
_ZN3art6HandleINS_6mirror18EmulatedStackFrameEE10GetFromGdbEv
_ZNK3art11Transaction15InternStringLog4UndoEPNS_11InternTableE
_ZNK3art8verifier12ConflictType4DumpEv
_ZN3art2gc4Heap31ClearPendingCollectorTransitionEPNS_6ThreadE
_ZNK3art8verifier7RegType16GetPrimitiveTypeEv
_ZNK3art8verifier10LongHiType4DumpEv
_ZN3art11ClassLinker13DoResolveTypeIPNS_8ArtFieldEEENS_6ObjPtrINS_6mirror5ClassEEENS_3dex9TypeIndexET_
_ZN3art14ReferenceTable6RemoveENS_6ObjPtrINS_6mirror6ObjectEEE
_ZN3art11ElfFileImplINS_10ElfTypes32EE11CheckAndSetEjPKcPPhPNSt3__112basic_stringIcNS7_11char_traitsIcEENS7_9allocatorIcEEEE
_ZN3art2gc10accounting11SpaceBitmapILm8EED2Ev
_ZN3art2gc5space16BumpPointerSpace16GetSweepCallbackEv
_ZN3art7riscv64lsERNSt3__113basic_ostreamIcNS1_11char_traitsIcEEEERKNS0_9FRegisterE
_ZN3art2gc5space11RegionSpace24AllocationSizeNonvirtualEPNS_6mirror6ObjectEPm
_ZN3art11InternTable10InternWeakENS_6ObjPtrINS_6mirror6StringEEE
_ZN3art11interpreter16UnstartedRuntime35UnstartedUnsafeCompareAndSwapObjectEPNS_6ThreadEPNS_11ShadowFrameEPNS_6JValueEm
_ZN3art10ThreadPool10HasStartedEPNS_6ThreadE
_ZN3art3jit15JitMemoryRegion10CommitCodeENS_8ArrayRefIKhEES4_PS3_b
_ZTVN3art21MonitorDeflateVisitorE
_ZN3art6Thread17NotifyThreadGroupERNS_33ScopedObjectAccessAlreadyRunnableEP8_jobject
_ZNK3art8verifier7RegType10VisitRootsEPNS_11RootVisitorERKNS_8RootInfoE
_ZNK3art11ElfFileImplINS_10ElfTypes64EE4SizeEv
_ZN3art17SuspensionHandlerC2EPNS_12FaultManagerE
_ZN3art18RuntimeArgumentMap17UseJitCompilationE
_ZN3art6mirror5Class25PrettyClassAndClassLoaderENS_6ObjPtrIS1_EE
_ZN3art9OatHeader11SetChecksumEj
_ZN3art8verifier11IntegerType7DestroyEv
_ZNK3art6mirror14PrimitiveArrayIlE7GetDataEv
_ZNK3com7android4apex8ApexInfo19hasLastUpdateMillisEv
_ZThn16_N3art2gc9collector17ConcurrentCopying17MarkHeapReferenceEPNS_6mirror13HeapReferenceINS3_6ObjectEEEb
_ZN3art16OatFileAssistant17IsInBootClassPathEv
_ZN3art5Trace10DexPcMovedEPNS_6ThreadENS_6HandleINS_6mirror6ObjectEEEPNS_9ArtMethodEj
_ZN3art8verifier12RegTypeCache22primitive_initialized_E
_ZNK3art2gc9collector16GarbageCollector19GetCurrentIterationEv
_ZN3art2gc9collector11MarkCompact9RunPhasesEv
_ZTVNSt3__120__shared_ptr_pointerIPN3art13CmdlineParserINS1_18RuntimeArgumentMapENS3_3KeyEE15SaveDestinationENS_14default_deleteIS6_EENS_9allocatorIS6_EEEE
_ZTVN3art21RuntimeArgumentMapKeyINS_9JniIdTypeEEE
_ZN3art6Thread7InitCpuEv
_ZN3art8verifier12RegTypeCache19FromUnresolvedMergeERKNS0_7RegTypeES4_PNS0_14MethodVerifierE
_ZN3art5Trace19LogMethodTraceEventEPNS_6ThreadEPNS_9ArtMethodENS_11TraceActionEjm
_ZN3art8verifier12VerifierDeps24MaybeRecordAssignabilityEPS1_RKNS_7DexFileERKNS_3dex8ClassDefENS_6ObjPtrINS_6mirror5ClassEEESD_
artAllocStringFromStringFromCodeRosAlloc
NterpGetShortyFromMethodId
mspace_memalign
_ZN3art42register_java_lang_invoke_MethodHandleImplEP7_JNIEnv
_ZN3art25X86InstructionSetFeatures11FromCpuInfoEb
_ZN3art17FindFieldFromCodeILNS_13FindFieldTypeE21EEEPNS_8ArtFieldEjPNS_9ArtMethodEPNS_6ThreadEb
_ZN3art11ClassLinker30VisiblyInitializedCallbackDoneEPNS_6ThreadEPNS0_26VisiblyInitializedCallbackE
_ZN3art2gc9allocator8RosAlloc3Run4DumpEv
_ZN3art2gc9collector17ConcurrentCopying17MarkHeapReferenceEPNS_6mirror13HeapReferenceINS3_6ObjectEEEb
_ZN3art2gc9collector9SemiSpace11FinishPhaseEv
_ZTVN3art2gc33TrimIndirectReferenceTableClosureE
_ZN3art6mirror5Field11VisitTargetEPNS_22ReflectiveValueVisitorE
_ZN3art15instrumentation15Instrumentation10DeoptimizeEPNS_9ArtMethodE
_ZN3art6mirror5Field11GetArtFieldEv
_ZN3art11HeapSampler19GetSamplingIntervalEv
_ZN3art7Runtime16VisitThreadRootsEPNS_11RootVisitorENS_14VisitRootFlagsE
artMethodEntryHook
_ZN3art5Locks18intern_table_lock_E
mspace_track_large_chunks
_ZN3art2gc9allocator8RosAlloc16ReleasePageRangeEPhS3_
_ZNK3com7android3art10ModuleInfo14getVersionNameEv
_ZN3art2gc5space11MallocSpaceC2ERKNSt3__112basic_stringIcNS3_11char_traitsIcEENS3_9allocatorIcEEEEONS_6MemMapEPhSE_SE_mbbmm
_ZTVNSt3__120__shared_ptr_pointerIPNS_6vectorINS_12basic_stringIcNS_11char_traitsIcEENS_9allocatorIcEEEENS5_IS7_EEEENS_14default_deleteIS9_EENS5_IS9_EEEE
_ZTVN3art21RuntimeArgumentMapKeyINS_14InstructionSetEEE
_ZNK3art8verifier13UndefinedType4DumpEv
artQuickGetProxyReferenceArgumentAt
_ZN3art18RuntimeArgumentMap9InterpretE
_ZN3art22IndirectReferenceTable4TrimEv
_ZN3art8verifier12DoubleLoType9instance_E
_ZTVN3art2gc12Verification18CollectRootVisitorE
_ZNSt3__110__function6__funcIPFbRKNS_12basic_stringIcNS_11char_traitsIcEENS_9allocatorIcEEEEjENS5_ISB_EESA_E18destroy_deallocateEv
_ZN3art16WellKnownClasses30java_lang_Throwable_stackStateE
_ZN3art2gc9collector17ConcurrentCopying28CaptureThreadRootsForMarkingEv
_ZN3art2gc5space13DlMallocSpace8FreeListEPNS_6ThreadEmPPNS_6mirror6ObjectE
_ZNK3art2gc5space13FreeListSpace29GetSlotIndexForAllocationInfoEPKNS1_14AllocationInfoE
_ZN3art12RuntimeImage19GetRuntimeImagePathERKNSt3__112basic_stringIcNS1_11char_traitsIcEENS1_9allocatorIcEEEE
_ZN3art18RuntimeArgumentMap24AllowInMemoryCompilationE
_ZN3art10ThreadPoolD0Ev
_ZNK3art11ElfFileImplINS_10ElfTypes32EE9GetStringEjj
_ZN3art2gc23ScopedGCCriticalSectionC2EPNS_6ThreadENS0_7GcCauseENS0_13CollectorTypeE
_ZThn136_N3art2gc5space13DlMallocSpace8FreeListEPNS_6ThreadEmPPNS_6mirror6ObjectE
_ZN3art2gc5space10ImageSpace19AppendImageChecksumEjjPNSt3__112basic_stringIcNS3_11char_traitsIcEENS3_9allocatorIcEEEE
_ZNK3art7OatFile17GetCompilerFilterEv
_ZN3art14OatFileManagerC2Ev
_ZN3art27Arm64InstructionSetFeatures9FromHwcapEv
artAllocObjectFromCodeResolvedDlMalloc
_ZNK3art6Thread16GetCurrentMethodEPjbb
_ZN3art18RuntimeArgumentMap21DumpRegionInfoAfterGCE
_ZN3art10ThreadList27WaitForUnregisterToCompleteEPNS_6ThreadE
_ZN3art11ClassLinker15InitializeClassEPNS_6ThreadENS_6HandleINS_6mirror5ClassEEEbb
_ZN3art9JavaVMExt8JniAbortEPKcS2_
_ZN3art10ObjectLockINS_6mirror6ObjectEEC2EPNS_6ThreadENS_6HandleIS2_EE
_ZTCNSt3__114basic_ifstreamIcNS_11char_traitsIcEEEE0_NS_13basic_istreamIcS2_EE
_ZN3art15DescribeLoadersENS_6ObjPtrINS_6mirror11ClassLoaderEEEPKc
_ZNK3art11ElfFileImplINS_10ElfTypes32EE12GetHashChainEmPb
_ZNK3art8verifier8ByteType4DumpEv
_ZNK3art8verifier18PreciseConstHiType4DumpEv
_ZN3art2gc10accounting27ModUnionTableReferenceCache8SetCardsEv
_ZN3art11interpreter33ArtInterpreterToInterpreterBridgeEPNS_6ThreadERKNS_20CodeItemDataAccessorEPNS_11ShadowFrameEPNS_6JValueE
_ZN3art18RuntimeArgumentMap15CompilerOptionsE
_ZTVN3art13VariantMapKeyIjEE
artAllocArrayFromCodeResolvedRegion
artAllocStringFromCharsFromCodeRegionTLAB
_ZN3art11ClassLinker17ResolveMethodTypeEPNS_6ThreadENS_3dex10ProtoIndexENS_6HandleINS_6mirror8DexCacheEEENS5_INS6_11ClassLoaderEEE
_ZN3art11interpreter16UnstartedRuntime37UnstartedJNIVMRuntimeNewUnpaddedArrayEPNS_6ThreadEPNS_9ArtMethodEPNS_6mirror6ObjectEPjPNS_6JValueE
_ZN3art2gc4Heap18IsLiveObjectLockedENS_6ObjPtrINS_6mirror6ObjectEEEbbb
_ZN3art2gc5space16LargeObjectSpaceC2ERKNSt3__112basic_stringIcNS3_11char_traitsIcEENS3_9allocatorIcEEEEPhSC_PKc
_ZN3art11interpreter16UnstartedRuntime34UnstartedDoubleDoubleToRawLongBitsEPNS_6ThreadEPNS_11ShadowFrameEPNS_6JValueEm
_ZN3art3jit3Jit16DeleteThreadPoolEv
_ZN3art29SetQuickAllocEntryPoints_tlabEPNS_16QuickEntryPointsEb
_ZN3artlsERNSt3__113basic_ostreamIcNS0_11char_traitsIcEEEENS_8StubTypeE
_ZN3art17FindFieldFromCodeILNS_13FindFieldTypeE37EEEPNS_8ArtFieldEjPNS_9ArtMethodEPNS_6ThreadEb
_ZN3art2gc9collector16PartialMarkSweepC2EPNS0_4HeapEbRKNSt3__112basic_stringIcNS5_11char_traitsIcEENS5_9allocatorIcEEEE
_ZN3art6mirror6String9CompareToENS_6ObjPtrIS1_EE
_ZN3art10ThreadList10UnregisterEPNS_6ThreadEb
_ZN3art5Trace14DumpMethodListERNSt3__113basic_ostreamIcNS1_11char_traitsIcEEEE
_ZN3art5Locks25reference_processor_lock_E
_ZN3art36ThrowArithmeticExceptionDivideByZeroEv
_ZNK3art7Runtime19HasImageWithProfileEv
_ZN3art12InvokeMethodILNS_11PointerSizeE4EEEP8_jobjectRKNS_33ScopedObjectAccessAlreadyRunnableES3_S3_S3_m
_ZNK3art2gc10accounting11SpaceBitmapILm4096EE10HasAddressEPKv
_ZN3art2gc18ReferenceProcessor33WaitUntilDoneProcessingReferencesEPNS_6ThreadE
_ZN3art6Thread37MaybePopDeoptimizedStackedShadowFrameEv
_ZN3art5Trace17DecodeTraceMethodEj
_ZTVN3art8verifier13ReferenceTypeE
artLockObjectFromCode
_ZN3art18ThrowInternalErrorEPKcz
_ZN3art11ClassLinker29FindClassInBaseDexClassLoaderEPNS_6ThreadEPKcmNS_6HandleINS_6mirror11ClassLoaderEEEPNS_6ObjPtrINS6_5ClassEEE
_ZTVN3art6detail20CmdlineParseArgumentINS_9ParseListIiLc58EEEEE
_ZN3art24GetCalleeSaveOuterMethodEPNS_6ThreadENS_14CalleeSaveTypeE
_ZN3com7android3art9ComponentC1ENSt3__112basic_stringIcNS3_11char_traitsIcEENS3_9allocatorIcEEEEmS9_
artLdiv
_ZNK3art10ClassTable26CountDefiningLoaderClassesENS_6ObjPtrINS_6mirror11ClassLoaderEEERKNS_7HashSetINS0_9TableSlotENS0_16TableSlotEmptyFnENS0_19ClassDescriptorHashENS0_21ClassDescriptorEqualsENS_20GcRootArenaAllocatorIS6_LNS_12AllocatorTagE2EEEEE
_ZN3art2gc5space10ImageSpace15BootImageLayout10ReadHeaderERKNSt3__112basic_stringIcNS4_11char_traitsIcEENS4_9allocatorIcEEEESC_mPSA_
_ZN3art15instrumentation15Instrumentation20EnableEntryExitHooksEPKc
_ZN3art33register_java_lang_reflect_MethodEP7_JNIEnv
_ZN3art5Trace12MethodUnwindEPNS_6ThreadEPNS_9ArtMethodEj
_ZNK3art8verifier14UnresolvedType23IsNonZeroReferenceTypesEv
artGetCharInstanceFromCompiledCode
_ZNK3com7android3art9Classpath12getComponentEv
_ZThn296_N3art2gc5space19LargeObjectMapSpace5AllocEPNS_6ThreadEmPmS5_S5_
_ZTVN3art32UpdateMethodsPreFirstForkVisitorE
_ZN3art16WellKnownClasses39java_lang_ThreadGroup_systemThreadGroupE
_ZN3art6HandleINS_6mirror17StackTraceElementEE10GetFromGdbEv
_ZN3art7Monitor17TranslateLocationEPNS_9ArtMethodEjPPKcPi
artSetCharInstanceFromCompiledCode
_ZN3art14ReferenceTableC2EPKcmm
_ZN3art6Thread17SetAsyncExceptionENS_6ObjPtrINS_6mirror9ThrowableEEE
_ZN3art6mirror5Class27SetReferenceInstanceOffsetsEj
_ZTVN3art2gc9collector15StickyMarkSweepE
_ZN3art14OatFileManager25RunBackgroundVerificationERKNSt3__16vectorIPKNS_7DexFileENS1_9allocatorIS5_EEEEP8_jobject
_ZNK3art10OatDexFile8FileSizeEv
_ZNK3art7OatFile8OatClass19GetOatMethodOffsetsEj
_ZN3art38ThrowIncompatibleClassChangeErrorFieldEPNS_8ArtFieldEbPNS_9ArtMethodE
_ZNK3art7Runtime11CanRelocateEv
_ZN3art16OatFileAssistant14GetBestOatFileEv
_ZN3art2gc9collector17ConcurrentCopying13MarkNonMovingEPNS_6ThreadEPNS_6mirror6ObjectES7_NS_12MemberOffsetE
_ZN3art13ObjectTryLockINS_6mirror5ClassEEC1EPNS_6ThreadENS_6HandleIS2_EE
_ZNK3art8UContext14DumpRegister32ERNSt3__113basic_ostreamIcNS1_11char_traitsIcEEEEPKcj
_ZNK3art11ElfFileImplINS_10ElfTypes64EE22FindDynamicValueByTypeEi
_ZN3art2gc9collector17ConcurrentCopying18GetAllocationStackEv
_ZN3art16OatFileAssistant14OpenImageSpaceEPKNS_7OatFileE
_ZN3art18RuntimeArgumentMap20LargeObjectThresholdE
_ZN3art32InitPlatformSignalHandlersCommonEPFviP7siginfoPvEP9sigactionb
_ZN3art2gc10accounting11SpaceBitmapILm8EE15ComputeHeapSizeEm
_ZN3art2gc4HeapD1Ev
_ZN3art6mirror5Class18GetInnerClassFlagsENS_6HandleIS1_EEi
_ZN3art11ClassLinker20DoLookupResolvedTypeENS_3dex9TypeIndexENS_6ObjPtrINS_6mirror8DexCacheEEENS3_INS4_11ClassLoaderEEE
_ZN3art2gc5space10ImageSpace15BootImageLayout14ValidateHeaderERKNS_11ImageHeaderEmPKcPNSt3__112basic_stringIcNS9_11char_traitsIcEENS9_9allocatorIcEEEE
_ZN3art11interpreter16UnstartedRuntime35UnstartedRuntimeAvailableProcessorsEPNS_6ThreadEPNS_11ShadowFrameEPNS_6JValueEm
_ZN3art5Trace21SetDefaultClockSourceENS_16TraceClockSourceE
_ZN3art8verifier14MethodVerifier11FailureData5MergeERKS2_
_ZN3art8verifier12RegisterLine22CheckBinaryOp2addrWideEPNS0_14MethodVerifierEPKNS_11InstructionERKNS0_7RegTypeES9_S9_S9_S9_S9_
artAllocStringFromCharsFromCodeRegionInstrumented
_ZNK3art7OatFile12GetOatHeaderEv
_ZNK3art18ClassLoaderContext23EncodeClassPathContextsERKNSt3__112basic_stringIcNS1_11char_traitsIcEENS1_9allocatorIcEEEE
_ZN3art11interpreter16UnstartedRuntime28UnstartedStringFastSubstringEPNS_6ThreadEPNS_11ShadowFrameEPNS_6JValueEm
_ZN3art9ArtMethod32FindDexMethodIndexInOtherDexFileERKNS_7DexFileEj
_ZN3art9JNIEnvExt9PushFrameEi
artGetObjInstanceFromCode
CpuFeatures_StringView_PopBack
_ZN3art11ClassLinker22CreateProxyConstructorENS_6HandleINS_6mirror5ClassEEEPNS_9ArtMethodE
_ZN3art16WellKnownClasses28java_lang_reflect_Proxy_initE
_ZN3art6Thread17FromManagedThreadERKNS_33ScopedObjectAccessAlreadyRunnableENS_6ObjPtrINS_6mirror6ObjectEEE
_ZN3art2gc9collector17ConcurrentCopying20IssueEmptyCheckpointEv
_ZN3art13ParsedOptions5UsageEPKcz
_ZTVN3art6detail20CmdlineParseArgumentINS_16TraceClockSourceEEE
_ZN3art8verifier8CharType7DestroyEv
_ZN3art2gc18ReferenceProcessor14EnableSlowPathEv
_ZNK3art6Thread13GetThreadNameERNSt3__112basic_stringIcNS1_11char_traitsIcEENS1_9allocatorIcEEEE
NterpFree
_ZN3art2gc18ReferenceProcessor13ClearReferentENS_6ObjPtrINS_6mirror9ReferenceEEE
_ZN3art14OatFileManager15RegisterOatFileENSt3__110unique_ptrIKNS_7OatFileENS1_14default_deleteIS4_EEEEb
_ZN3art16VerifyObjectImplENS_6ObjPtrINS_6mirror6ObjectEEE
_ZNK3com7android3art9CacheInfo23getDex2oatBootClasspathEv
_ZN3art2gc9collector15StickyMarkSweep5SweepEb
_ZTVN3art29Riscv64InstructionSetFeaturesE
_ZN3art5Locks14InitConditionsEv
_ZN3art6mirror6Object12PrettyTypeOfENS_6ObjPtrIS1_EE
mspace_mallopt
_ZN3art2gc5space13DlMallocSpace17GetFootprintLimitEv
_ZN3art7Monitor21LockOwnerInfoChecksumEPNS_9ArtMethodEjPNS_6ThreadE
_ZN3art11Transaction25RecordWriteFieldReferenceEPNS_6mirror6ObjectENS_12MemberOffsetES3_b
_ZNK3com7android4apex8ApexInfo5writeERNSt3__113basic_ostreamIcNS3_11char_traitsIcEEEERKNS3_12basic_stringIcS6_NS3_9allocatorIcEEEE
_ZN3art2gc9collector11MarkCompact14SlideBlackPageEPNS_6mirror6ObjectES5_jPhS6_b
_ZTVN3art2gc4Heap16ConcurrentGCTaskE
_ZNK3art2gc12Verification20FirstPathFromRootSetENS_6ObjPtrINS_6mirror6ObjectEEE
_ZN3art11MonitorListC1Ev
_ZN3art6Thread16DumpThreadOffsetILNS_11PointerSizeE8EEEvRNSt3__113basic_ostreamIcNS3_11char_traitsIcEEEEj
_ZN3art16WellKnownClasses23java_lang_Short_valueOfE
_ZN3art7Runtime18UpdateProcessStateENS_12ProcessStateE
_ZN3art15MemMapArenaPool14FreeArenaChainEPNS_5ArenaE
_ZN3art2gc4Heap15ChangeAllocatorENS0_13AllocatorTypeE
_ZTVN3art2gc5space16BumpPointerSpaceE
_ZN3art9JavaVMExt12DecodeGlobalEPv
_ZN3art6x86_64lsERNSt3__113basic_ostreamIcNS1_11char_traitsIcEEEERKNS0_8RegisterE
_ZN3art6mirror10MethodType24CollectTrailingArgumentsEPNS_6ThreadENS_6ObjPtrIS1_EENS4_INS0_5ClassEEEi
_ZN3art17MonitorExitHelperEPNS_6ThreadEPNS_6mirror6ObjectE
_ZN3art12ProfileSaver23ResolveTrackedLocationsEv
_ZN3art18RuntimeArgumentMap19MethodTraceFileSizeE
_ZN3art16WellKnownClasses43dalvik_annotation_optimization_NeverCompileE
_ZN3art2gc9allocator8RosAlloc10numOfSlotsE
_ZN3art27GetJitMiniDebugInfoMemUsageEv
_ZN3art3jit3Jit6CreateEPNS0_12JitCodeCacheEPNS0_10JitOptionsE
_ZNK3art7metrics15MetricsReporter21ShouldReportAtStartupEv
artAllocObjectFromCodeInitializedRegionTLABInstrumented
mspace_trim
_ZN3art2gc9collector11MarkCompact16ScanDirtyObjectsEbh
_ZN3art6mirror14FieldVarHandle11VisitTargetEPNS_22ReflectiveValueVisitorE
_ZN3art16OatFileAssistant15GetDexOptNeededENS_14CompilerFilter6FilterEbb
_ZN3art28register_java_lang_ThrowableEP7_JNIEnv
_ZN3art32register_java_lang_VMClassLoaderEP7_JNIEnv
_ZN3art8verifierlsERNSt3__113basic_ostreamIcNS1_11char_traitsIcEEEENS0_11FailureKindE
_ZN3art18NullPointerHandlerC2EPNS_12FaultManagerE
_ZN3art2gc9collector9MarkSweepC1EPNS0_4HeapEbRKNSt3__112basic_stringIcNS5_11char_traitsIcEENS5_9allocatorIcEEEE
_ZN3art2gc5space13FreeListSpace27GetAllocationInfoForAddressEm
_ZN3art3jit12JitCodeCache19GarbageCollectCacheEPNS_6ThreadE
_ZN3art16OatFileAssistantC1EPKcNS_14InstructionSetEPNS_18ClassLoaderContextEbbPNS_23OatFileAssistantContextEiii
_ZNK3art13ObjectTryLockINS_6mirror6ObjectEE8AcquiredEv
_ZN3art16RuntimeCallbacks23RemoveClassLoadCallbackEPNS_17ClassLoadCallbackE
_ZN3art2ti9AgentSpec8DoDlOpenEP7_JNIEnvP8_jobjectPNS0_9LoadErrorEPNSt3__112basic_stringIcNS8_11char_traitsIcEENS8_9allocatorIcEEEE
_ZN3art5Locks22oat_file_manager_lock_E
_ZN3art6Thread19WaitForFlipFunctionEPS0_
_ZN3art11Transaction8ArrayLog8LogValueEmm
_ZN3art7Barrier4WaitEPNS_6ThreadE
_ZN3art17ReaderWriterMutex32WakeupToRespondToEmptyCheckpointEv
_ZTVN3art2gc5space11MallocSpaceE
_ZN3art22ScopedProfilingInfoUseC2EPNS_3jit3JitEPNS_9ArtMethodEPNS_6ThreadE
_ZN3art17InvokeWithVarArgsIP10_jmethodIDEENS_6JValueERKNS_33ScopedObjectAccessAlreadyRunnableEP8_jobjectT_St9__va_list
_ZN3art6mirror14PrimitiveArrayIsE7GetDataEv
_ZN3art7RuntimeC1Ev
artInvokeCustom
_ZN3art11ClassLinker15ResolveFieldJLSEjNS_6HandleINS_6mirror8DexCacheEEENS1_INS2_11ClassLoaderEEE
_ZN3art2gc9collector17ConcurrentCopying20TestMarkBitmapForRefEPNS_6mirror6ObjectE
_ZN3art2gc4Heap16AddModUnionTableEPNS0_10accounting13ModUnionTableE
_ZN3art8verifier12RegTypeCache14FromDescriptorENS_6ObjPtrINS_6mirror11ClassLoaderEEEPKcb
_ZNK3art7OatFile3EndEv
_ZN3art11interpreter32RecordArrayElementsInTransactionENS_6ObjPtrINS_6mirror5ArrayEEEi
_ZN3art9JavaVMExtC2EPNS_7RuntimeERKNS_18RuntimeArgumentMapE
_ZN3art16RuntimeCallbacks15AddParkCallbackEPNS_12ParkCallbackE
_ZN3art6HandleINS_6mirror14PrimitiveArrayItEEE10GetFromGdbEv
_ZN3art3jit3Jit25WaitForWorkersToBeCreatedEv
_ZNK3art20OatQuickMethodHeader31ToNativeQuickPcForCatchHandlersEPNS_9ArtMethodENS_8ArrayRefIKjEEPjb
_ZN3art16WellKnownClasses36java_lang_Thread_unparkedBeforeStartE
CpuFeatures_StringView_CopyString
_ZN3art11interpreter16IsNterpSupportedEv
_ZN3art6mirror9Throwable4DumpEv
_ZN3art16RuntimeCallbacks9ClassLoadENS_6HandleINS_6mirror5ClassEEE
_ZN3art15instrumentation15Instrumentation21InitializeMethodsCodeEPNS_9ArtMethodEPKv
_ZN3art6Thread31MadviseAwayAlternateSignalStackEv
_ZN3art18RuntimeArgumentMap29GlobalRefAllocStackTraceLimitE
_ZNK3art9OatHeader19GetBcpBssInfoOffsetEv
_ZNK3art9ExecUtils7GetStatEiPNS_11ProcessStatEPNSt3__112basic_stringIcNS3_11char_traitsIcEENS3_9allocatorIcEEEE
_ZN3art15instrumentation15InstrumentationC2Ev
__jit_debug_descriptor
_ZN3art11ClassLinker16InitWithoutImageENSt3__16vectorINS1_10unique_ptrIKNS_7DexFileENS1_14default_deleteIS5_EEEENS1_9allocatorIS8_EEEEPNS1_12basic_stringIcNS1_11char_traitsIcEENS9_IcEEEE
_ZN3art2gc4Heap13UnBindBitmapsEv
_ZN3art9JavaVMExt32CheckGlobalRefAllocationTrackingEv
_ZTVN3art22CatchBlockStackVisitorE
_ZN3art5Trace8GetFlagsEv
_ZN3art6mirror5Array35ThrowArrayIndexOutOfBoundsExceptionEi
_ZNK3art9ExecUtils19ExecAndReturnResultERKNSt3__16vectorINS1_12basic_stringIcNS1_11char_traitsIcEENS1_9allocatorIcEEEENS6_IS8_EEEEiPS8_
_ZN3art6HandleINS_6mirror11ObjectArrayINS1_11ClassLoaderEEEE10GetFromGdbEv
_ZN3art3jni19LocalReferenceTable10VisitRootsEPNS_11RootVisitorERKNS_8RootInfoE
_ZNK3art12StackVisitor11GetReturnPcEv
_ZNK3art11ElfFileImplINS_10ElfTypes64EE19GetProgramHeaderNumEv
_ZN3art16LoadNativeBridgeERKNSt3__112basic_stringIcNS0_11char_traitsIcEENS0_9allocatorIcEEEE
_ZTVN3art21RuntimeArgumentMapKeyINS_8verifier10VerifyModeEEE
_ZN3art16ThreadPoolWorkerD1Ev
_ZTVN3art8verifier12DoubleLoTypeE
_ZTVN3art2gc4Heap25ReduceTargetFootprintTaskE
_ZN3art6HandleINS_6mirror8DexCacheEE10GetFromGdbEv
_ZTVN3art15instrumentation24InstallStubsClassVisitorE
_ZTVN3art6mirror6Object8AccessorIlEE
_ZN3art2gc4Heap16AllocWithNewTLABEPNS_6ThreadENS0_13AllocatorTypeEmbPmS5_S5_
_ZNK3art11ElfFileImplINS_10ElfTypes32EE21GetLoadedAddressRangeEPPhPmPNSt3__112basic_stringIcNS6_11char_traitsIcEENS6_9allocatorIcEEEE
_ZN3art11ElfFileImplINS_10ElfTypes32EED1Ev
_ZThn136_N3art2gc5space13DlMallocSpace4FreeEPNS_6ThreadEPNS_6mirror6ObjectE
artAllocArrayFromCodeResolvedBumpPointerInstrumented
_ZN3art11ClassLinker16NumLoadedClassesEv
_ZN3art3jit3Jit22IgnoreSamplesForMethodEPNS_9ArtMethodE
_ZNSt3__115basic_stringbufIcNS_11char_traitsIcEENS_9allocatorIcEEE3strERKNS_12basic_stringIcS2_S4_EE
_ZN3art11ClassLinker22CreateImtConflictTableEmPNS_11LinearAllocENS_11PointerSizeE
_ZNK3art9OatHeader25GetValidationErrorMessageEv
artGet64StaticFromCompiledCode
_ZN3art10ThreadPool7AddTaskEPNS_6ThreadEPNS_4TaskE
_ZN3art2gc9collector15StickyMarkSweepC1EPNS0_4HeapEbRKNSt3__112basic_stringIcNS5_11char_traitsIcEENS5_9allocatorIcEEEE
_ZThn136_N3art2gc5space13RosAllocSpace27RevokeAllThreadLocalBuffersEv
_ZN3art11InternTable5Table10SweepWeaksEPNS_15IsMarkedVisitorE
_ZN3art3jni19LocalReferenceTableD1Ev
_ZN3art16RuntimeCallbacks21RemoveMonitorCallbackEPNS_15MonitorCallbackE
_ZN3art5Locks17thread_list_lock_E
_ZN3art18RuntimeArgumentMap21LongPauseLogThresholdE
_ZTVN3art13VariantMapKeyINS_9ParseListIiLc58EEEEE
artAllocObjectFromCodeInitializedTLAB
_ZNK3art11ElfFileImplINS_10ElfTypes64EE9GetStringEjj
_ZN3art2gc9collector9SemiSpace9RunPhasesEv
_ZN3art11InternTableC2Ev
_ZN3art9JNIEnvExt8PopFrameEv
_ZN3art11ClassLinker16CheckSystemClassEPNS_6ThreadENS_6HandleINS_6mirror5ClassEEEPKc
_ZN3art2gc10accounting6Bitmap8CopyFromEPS2_
_ZN3art7Runtime23RecordWeakStringRemovalENS_6ObjPtrINS_6mirror6StringEEE
_ZN3art5Trace22StoreExitingThreadInfoEPNS_6ThreadE
_ZN3art11Transaction20ResolveMethodTypeLog10VisitRootsEPNS_11RootVisitorE
_ZN3art2gc9collector11MarkCompact35CanCompactMovingSpaceWithMinorFaultEv
_ZN3art6Thread24CreateCallbackWithUffdGcEPv
_ZN3art2gc5space11RegionSpace18DumpNonFreeRegionsERNSt3__113basic_ostreamIcNS3_11char_traitsIcEEEE
_ZN3art11ClassLinker30CreateReferenceInstanceOffsetsENS_6HandleINS_6mirror5ClassEEE
_ZN3art11ClassLinker20DoLookupResolvedTypeENS_3dex9TypeIndexENS_6ObjPtrINS_6mirror5ClassEEE
_ZN3art10ClassTable16InsertStrongRootENS_6ObjPtrINS_6mirror6ObjectEEE
_ZTVN3art5hprof12EndianOutputE
_ZN3art5Locks15dex_cache_lock_E
_ZN3art9hiddenapi6detail15MemberSignature6EqualsERKS2_
_ZN3art13DlOpenOatFile7PreLoadEv
_ZTVN3art13VariantMapKeyINS_19ProfileSaverOptionsEEE
_ZTVN3art21RuntimeArgumentMapKeyINS_2gc5space20LargeObjectSpaceTypeEEE
_ZNSt3__113basic_filebufIcNS_11char_traitsIcEEEC2Ev
artAllocStringObjectRegionInstrumented
_ZN3art11ClassLinker14AddImageSpacesENS_8ArrayRefIPNS_2gc5space10ImageSpaceEEENS_6HandleINS_6mirror11ClassLoaderEEEPNS_18ClassLoaderContextEPNSt3__16vectorINSD_10unique_ptrIKNS_7DexFileENSD_14default_deleteISH_EEEENSD_9allocatorISK_EEEEPNSD_12basic_stringIcNSD_11char_traitsIcEENSL_IcEEEE
_ZN3art10ClassTable11UpdateClassEPKcNS_6ObjPtrINS_6mirror5ClassEEEm
_ZNK3art2gc13TaskProcessor16GetRunningThreadEv
_ZN3art11InternTable5TableC2Ev
_ZN3art7Runtime12SetJniIdTypeENS_9JniIdTypeE
_ZN3art9BaseMutexD1Ev
_ZNK3art2gc5space13FreeListSpace19IsZygoteLargeObjectEPNS_6ThreadEPNS_6mirror6ObjectE
_ZN3art9hiddenapi6detail15MemberSignatureC2ERKNS_13ClassAccessor5FieldE
_ZN3art22IndirectReferenceTable15ConstexprChecksEv
_ZN3art11interpreter20DoVarHandleGetOpaqueEPNS_6ThreadERNS_11ShadowFrameEPKNS_11InstructionEtPNS_6JValueE
_ZN3art3jit16ScopedJitSuspendC1Ev
_ZN3art32register_java_lang_reflect_ProxyEP7_JNIEnv
_ZN3art18RuntimeArgumentMap17MemoryInitialSizeE
_ZN3art24ThrowAbstractMethodErrorEPNS_9ArtMethodE
_ZN3art11annotations18GetDeclaredClassesENS_6HandleINS_6mirror5ClassEEE
_ZN3art2gc9collector9SemiSpace17ProcessReferencesEPNS_6ThreadE
_ZN3art15instrumentation15Instrumentation32UpdateNativeMethodsCodeToJitCodeEPNS_9ArtMethodEPKv
_ZN3art11interpreter16UnstartedRuntime32UnstartedJNIUnsafeGetIntVolatileEPNS_6ThreadEPNS_9ArtMethodEPNS_6mirror6ObjectEPjPNS_6JValueE
_ZN3art22NativeDebugInfoPreForkEv
_ZN3art14AotClassLinkerC2EPNS_11InternTableE
_ZNK3art11ElfFileImplINS_10ElfTypes32EE16GetSectionHeaderEj
_ZN3art10ThreadList10SuspendAllEPKcb
_ZN3art6Thread17RequestCheckpointEPNS_7ClosureE
_ZTVN3art8verifier11BooleanTypeE
_ZN3art2gc5space10ImageSpace21IsBootClassPathOnDiskENS_14InstructionSetE
_ZN3art2gc5space10AllocSpace20SweepCallbackContextC2EbPNS1_5SpaceE
_ZN3art5Locks13logging_lock_E
_ZN3art2gc5space16LargeObjectSpace11SwapBitmapsEv
_ZN3art10OatDexFile25InitializeTypeLookupTableEv
_ZNK3art12StackVisitor13GetThisObjectEv
_ZTVN3art2gc9collector17ConcurrentCopying12FlipCallbackE
_ZN3art11ClassLinker21AppendToBootClassPathEPKNS_7DexFileENS_6ObjPtrINS_6mirror8DexCacheEEE
_ZN3art2gc5space10ImageSpace15BootImageLayout23GetPrimaryImageLocationEv
_ZN3art15instrumentation15Instrumentation22UndeoptimizeEverythingEPKc
_ZN3art7Runtime14GetTransactionEv
_ZN3art6mirror14PrimitiveArrayIiE7GetDataEv
_ZN3art14OatFileManager16DeleteThreadPoolEv
artSet32InstanceFromCompiledCode
_ZN3art5Locks4InitEv
_ZN3art7Runtime56GetPreAllocatedOutOfMemoryErrorWhenHandlingStackOverflowEv
_ZN3art2gc5space11RegionSpace28LogFragmentationAllocFailureERNSt3__113basic_ostreamIcNS3_11char_traitsIcEEEEm
_ZN3art25X86InstructionSetFeatures15FromCpuFeaturesEb
_ZN3art6mirror5Class9FindFieldENS_6ObjPtrINS0_8DexCacheEEEj
_ZN3art8VdexFile10OpenFromDmERKNSt3__112basic_stringIcNS1_11char_traitsIcEENS1_9allocatorIcEEEERKNS_10ZipArchiveE
_ZTVNSt3__120__shared_ptr_pointerIPN3art18RuntimeArgumentMapENS_14default_deleteIS2_EENS_9allocatorIS2_EEEE
artAllocObjectFromCodeResolvedRegionInstrumented
_ZN3art9ArtMethod24ThrowInvocationTimeErrorENS_6ObjPtrINS_6mirror6ObjectEEE
_ZN3art20InitializeIntrinsicsEv
_ZTVN3art13VariantMapKeyINS_16TraceClockSourceEEE
_ZNK3art6Thread19NumberOfHeldMutexesEv
artAllocObjectFromCodeResolvedRosAllocInstrumented
_ZNK3com7android3art9Classpath12hasComponentEv
_ZN3art11InternTable5Table6InsertENS_6ObjPtrINS_6mirror6StringEEEj
_ZN3art22NterpGetRegistersArrayEPPNS_9ArtMethodE
_ZN3art18RuntimeArgumentMap16LargeObjectSpaceE
_ZTVN3art21RuntimeArgumentMapKeyIPFvvEEE
_ZN3art11Transaction21VisitInternStringLogsEPNS_11RootVisitorE
_ZNK3com7android3art9CacheInfo19getSystemPropertiesEv
_ZN3art2gc9allocator8RosAlloc22BytesAllocatedCallbackEPvS3_mS3_
_ZN3art15instrumentation15Instrumentation20DeoptimizeEverythingEPKc
_ZN3art6Thread11InterruptedEv
_ZN3art10ObjectLockINS_6mirror6ObjectEE6NotifyEv
_ZTVN3art6detail20CmdlineParseArgumentIbEE
_ZNK3art8verifier12VerifierDeps6EqualsERKS1_
_ZNK3com7android3art9CacheInfo21getFirstArtModuleInfoEv
_ZN3art15MemMapArenaPool17LockReclaimMemoryEv
_ZN3art7ElfFileD1Ev
_ZNK3art2gc5space13FreeListSpace4DumpERNSt3__113basic_ostreamIcNS3_11char_traitsIcEEEE
_ZN3art7Runtime27RecordStrongStringInsertionENS_6ObjPtrINS_6mirror6StringEEE
_ZN3art7Runtime17InitNativeMethodsEv
artReadBarrierSlow
_ZNK3com7android4apex8ApexInfo14hasVersionNameEv
_ZN3art5Locks19subtype_check_lock_E
_ZTVN3art15MemMapArenaPoolE
_ZNK3art2gc10accounting11SpaceBitmapILm4096EE8HeapSizeEv
_ZN3art11interpreter18UnlockHeldMonitorsEPNS_6ThreadEPNS_11ShadowFrameE
_ZNK3art6Thread25AssertPendingOOMExceptionEv
_ZN3art18RuntimeArgumentMap5ImageE
_ZTVN3art14FillNativeCallE
_ZN3art6mirror9Throwable8SetCauseENS_6ObjPtrIS1_EE
_ZN3art22IndirectReferenceTable17AbortIfNoCheckJNIERKNSt3__112basic_stringIcNS1_11char_traitsIcEENS1_9allocatorIcEEEE
_ZN3art6Plugin6UnloadEv
_ZN3art8verifier12RegisterLine17GetInvocationThisEPNS0_14MethodVerifierEPKNS_11InstructionEb
_ZN3art8verifier12RegisterLine27MarkAllRegistersAsConflictsEPNS0_14MethodVerifierE
_ZN3art11annotations36GetNumberOfAnnotatedMethodParametersEPNS_9ArtMethodE
_ZN3art2gc10accounting11SpaceBitmapILm4096EEC1ERKNSt3__112basic_stringIcNS4_11char_traitsIcEENS4_9allocatorIcEEEEONS_6MemMapEPmmPKvm
_ZN3art6mirror9Throwable16SetDetailMessageENS_6ObjPtrINS0_6StringEEE
_ZN3art6mirror9VarHandle23GetReturnTypeDescriptorEPKc
_ZN3art27JniNativeInterfaceFunctionsILb1EE19gJniNativeInterfaceE
artAllocObjectFromCodeInitializedDlMallocInstrumented
_ZN3art2gc9allocator8RosAlloc12FreeInternalEPNS_6ThreadEPv
_ZN3art9hiddenapi6detail15MemberSignatureC1EPNS_8ArtFieldE
artAllocObjectFromCodeWithChecksTLABInstrumented
_ZNK3art18ClassLoaderContext21FlattenOpenedDexFilesEv
_ZN3art2gc9collector9MarkSweep10VisitRootsEPPPNS_6mirror6ObjectEmRKNS_8RootInfoE
_ZN3art7metrics6statsd11stats_writeEiliiiiiiiiiiiiiiiiiiiiii
_ZN3art7Barrier9IncrementILNS0_12LockHandlingE0EEEvPNS_6ThreadEi
_ZN3art11ClassLinker24OpenAndInitImageDexFilesEPKNS_2gc5space10ImageSpaceENS_6HandleINS_6mirror11ClassLoaderEEEPNSt3__16vectorINSA_10unique_ptrIKNS_7DexFileENSA_14default_deleteISE_EEEENSA_9allocatorISH_EEEEPNSA_12basic_stringIcNSA_11char_traitsIcEENSI_IcEEEE
_ZN3art33ThrowIllegalAccessErrorFinalFieldEPNS_9ArtMethodEPNS_8ArtFieldE
_ZN3art18RuntimeArgumentMap20JITOptimizeThresholdE
_ZN3art13ProfilingInfo20GetOptimizeThresholdEv
_ZN3art18RuntimeArgumentMap26VerifierMissingKThrowFatalE
_ZN3art12TrackedArena7ReleaseEv
_ZN3art11ClassLinker18LinkInstanceFieldsEPNS_6ThreadENS_6HandleINS_6mirror5ClassEEE
_ZN3art2gc10accounting11SpaceBitmapILm8EE8CopyViewERS3_
_ZN3art2gc13TaskProcessorD0Ev
_ZN3art18MethodHandleInvokeEPNS_6ThreadERNS_11ShadowFrameENS_6HandleINS_6mirror12MethodHandleEEENS4_INS5_10MethodTypeEEEPKNS_19InstructionOperandsEPNS_6JValueE
_ZNK3art27Arm64InstructionSetFeatures16GetFeatureStringEv
_ZNK3art9OatHeader19GetExecutableOffsetEv
_ZN3art16WellKnownClasses25java_lang_Boolean_valueOfE
_ZN3art11interpreter16UnstartedRuntime21UnstartedClassForNameEPNS_6ThreadEPNS_11ShadowFrameEPNS_6JValueEm
_ZN3art12ProfileSaver9instance_E
_ZN3art5Trace26RecordStreamingMethodEventEPNS_6ThreadEPNS_9ArtMethodENS_11TraceActionEjm
_ZNK3art11ElfFileImplINS_10ElfTypes64EE15GetHashChainNumEv
_ZN3art6HandleINS_6mirror14PrimitiveArrayIfEEE10GetFromGdbEv
_ZNK3art11annotations38RuntimeEncodedStaticFieldValueIterator16ReadValueToFieldILb1EEEvPNS_8ArtFieldE
_ZNK3art7ElfFile11GetFilePathEv
_ZN3art2gc4Heap25PreSweepingGcVerificationEPNS0_9collector16GarbageCollectorE
_ZN3art11QuasiAtomic14SwapMutexCas64EllPVl
_ZN3art5Trace16IsTracingEnabledEv
_ZN3art11interpreter16UnstartedRuntime24UnstartedJNIStringInternEPNS_6ThreadEPNS_9ArtMethodEPNS_6mirror6ObjectEPjPNS_6JValueE
_ZN3art7Runtime19AttachCurrentThreadEPKcbP8_jobjectbb
_ZN3art16WellKnownClasses37libcore_reflect_AnnotationMember_initE
_ZN3art29ThrowWrongMethodTypeExceptionENS_6ObjPtrINS_6mirror10MethodTypeEEES3_
_ZTCNSt3__118basic_stringstreamIcNS_11char_traitsIcEENS_9allocatorIcEEEE0_NS_13basic_istreamIcS2_EE
_ZN3art7Runtime10VisitRootsEPNS_11RootVisitorENS_14VisitRootFlagsE
_ZN3art2gc9collector9SemiSpace12SetFromSpaceEPNS0_5space26ContinuousMemMapAllocSpaceE
_ZN3art6mirror5Class30FindDeclaredDirectMethodByNameENSt3__117basic_string_viewIcNS2_11char_traitsIcEEEENS_11PointerSizeE
NterpLoadObject
_ZN3art17ReaderWriterMutexD1Ev
_ZN3art2gc9collector17ConcurrentCopying22AssertToSpaceInvariantEPNS_12GcRootSourceEPNS_6mirror6ObjectE
_ZN3art3jit12JitCodeCache25InvalidateAllCompiledCodeEv
_ZN3art11InternTable25ChangeWeakRootStateLockedENS_2gc13WeakRootStateE
_ZN3art7Runtime6CreateERKNSt3__16vectorINS1_4pairINS1_12basic_stringIcNS1_11char_traitsIcEENS1_9allocatorIcEEEEPKvEENS7_ISC_EEEEb
_ZN3art22InstructionSetFeatures12FromAssemblyEv
_ZN3art14AotClassLinker13SetSdkCheckerEONSt3__110unique_ptrINS_10SdkCheckerENS1_14default_deleteIS3_EEEE
_ZN3art23ThrowStackOverflowErrorEPNS_6ThreadE
_ZN3art11annotations30GetParametersMetadataForMethodEPNS_9ArtMethodEPNS_13MutableHandleINS_6mirror11ObjectArrayINS4_6StringEEEEEPNS3_INS4_14PrimitiveArrayIiEEEE
_ZNK3art8verifier20ImpreciseConstHiType4DumpEv
_ZNK3art6Thread7HasTlabEv
_ZN3art11OatFileBase5SetupEiNS_8ArrayRefIKNSt3__112basic_stringIcNS2_11char_traitsIcEENS2_9allocatorIcEEEEEENS1_IKiEEPS8_
_ZN3art16OatFileAssistant11OatFileInfo17ReleaseFileForUseEv
_ZN3art7ElfFile4OpenEPN9unix_file6FdFileEiiPNSt3__112basic_stringIcNS4_11char_traitsIcEENS4_9allocatorIcEEEE
_ZN3art2gc5space13FreeListSpaceC1ERKNSt3__112basic_stringIcNS3_11char_traitsIcEENS3_9allocatorIcEEEEONS_6MemMapEPhSE_
_ZTVN3art21RuntimeArgumentMapKeyINS_17ExperimentalFlagsEEE
_ZN3art8verifier10LongHiType14CreateInstanceENS_6ObjPtrINS_6mirror5ClassEEERKNSt3__117basic_string_viewIcNS6_11char_traitsIcEEEEt
_ZTVN3art2gc24RootMatchesObjectVisitorE
_ZN3art6mirror5Class11GetLocationEv
_ZTVN3art2gc9collector11MarkCompact18ThreadRootsVisitorILm20EEE
_ZN3art2gc4Heap16CreateThreadPoolEm
_ZN3art11TransactionD1Ev
_ZTVN3art8verifier34UnresolvedUninitializedThisRefTypeE
_ZNK3art10SdkChecker16ShouldDenyAccessEPNS_9ArtMethodE
_ZN3art9ArtMethod15NumArgRegistersEPKc
_ZN3art6mirror6String14ToModifiedUtf8Ev
_ZN3art11interpreter16UnstartedRuntime35UnstartedJNIJdkUnsafeGetIntVolatileEPNS_6ThreadEPNS_9ArtMethodEPNS_6mirror6ObjectEPjPNS_6JValueE
_ZN3art3jit3Jit17StartProfileSaverERKNSt3__112basic_stringIcNS2_11char_traitsIcEENS2_9allocatorIcEEEERKNS2_6vectorIS8_NS6_IS8_EEEESA_
_ZTVN3art13VariantMapKeyINS_2gc5space20LargeObjectSpaceTypeEEE
artAllocStringObjectDlMallocInstrumented
_ZNK3art11ImageHeader5Block10DecompressEPhPKhPNSt3__112basic_stringIcNS5_11char_traitsIcEENS5_9allocatorIcEEEE
_ZN3art18RuntimeArgumentMap7VerboseE
_ZNK3com7android3art9CacheInfo19hasSystemPropertiesEv
_ZN3art5Locks37reference_queue_soft_references_lock_E
_ZN3art2gc5space10ImageSpace15ReleaseMetadataEv
_ZN3art26ThrowClassCircularityErrorENS_6ObjPtrINS_6mirror5ClassEEE
_ZN3art11ElfFileImplINS_10ElfTypes64EE6SetMapEPN9unix_file6FdFileEONS_6MemMapEPNSt3__112basic_stringIcNS8_11char_traitsIcEENS8_9allocatorIcEEEE
_ZN3art6HandleINS_6mirror14PrimitiveArrayIfEEE13ObjectFromGdbEv
_ZN3art22IndirectReferenceTable3AddENS_6ObjPtrINS_6mirror6ObjectEEEPNSt3__112basic_stringIcNS5_11char_traitsIcEENS5_9allocatorIcEEEE
artGet32StaticFromCode
_ZTVN3art2gc9collector16PartialMarkSweepE
_ZN3art16WellKnownClasses49dalvik_system_BaseDexClassLoader_getLdLibraryPathE
_ZTVN3art21RuntimeArgumentMapKeyIPNS_17CompilerCallbacksEEE
_ZN3art5Trace27GetClockOverheadNanoSecondsEv
_ZNK3art22InstructionSetFeatures26AddRuntimeDetectedFeaturesEPKS0_
_ZN3art18GcVisitedArenaPool18FreeSingleObjArenaEPh
_ZN3art11annotations25GetAnnotationDefaultValueEPNS_9ArtMethodE
_ZN3art2gc5space16BumpPointerSpace27RevokeAllThreadLocalBuffersEv
_ZN3art15instrumentation15Instrumentation25InstrumentAllThreadStacksEb
_ZN3art3jit12JitCodeCache29BroadcastForInlineCacheAccessEv
_ZN3art6Thread13IsInterruptedEv
_ZN3art16OatFileAssistant23IsAnonymousVdexBasenameERKNSt3__112basic_stringIcNS1_11char_traitsIcEENS1_9allocatorIcEEEE
_ZN3art23OatFileAssistantContext15GetBcpChecksumsEmPNSt3__112basic_stringIcNS1_11char_traitsIcEENS1_9allocatorIcEEEE
_ZN3art3jit12JitCodeCache4DumpERNSt3__113basic_ostreamIcNS2_11char_traitsIcEEEE
_ZN3art7metrics15MetricsReporter13ReportMetricsEv
_ZNK3art14OatFileManager32FindOpenedOatFileFromOatLocationERKNSt3__112basic_stringIcNS1_11char_traitsIcEENS1_9allocatorIcEEEE
_ZN3art8CodeInfo20DecodeInlineInfoOnlyEPKNS_20OatQuickMethodHeaderE
_ZN3art7Runtime14RunRootClinitsEPNS_6ThreadE
_ZN3art11Transaction20RecordWriteFieldByteEPNS_6mirror6ObjectENS_12MemberOffsetEab
_ZTVNSt3__120__shared_ptr_emplaceIN3art12JdwpProviderENS_9allocatorIS2_EEEE
artInstanceOfFromCode
_ZN3art2gc9allocator8RosAllocC1EPvmmNS2_15PageReleaseModeEbm
_ZN3art2gc9collector9SemiSpace16ProcessMarkStackEv
_ZN3art7Runtime23RollbackAllTransactionsEv
_ZNK3art6Thread9DumpStackERNSt3__113basic_ostreamIcNS1_11char_traitsIcEEEEbb
_ZN3artlsERNSt3__113basic_ostreamIcNS0_11char_traitsIcEEEENS_12ProcessStateE
_ZN3art7OatFileD2Ev
_ZN3art16RuntimeCallbacks20AddClassLoadCallbackEPNS_17ClassLoadCallbackE
_ZN3art16CumulativeLogger5StartEv
_ZNK3art7Runtime21IsVerificationEnabledEv
_ZNK3art2gc10accounting17MemoryRangeBitmapILm16EE4TestEm
_ZN3art8verifier12RegisterLine19CopyResultRegister2EPNS0_14MethodVerifierEj
_ZN3art2gc9collector17ConcurrentCopyingC2EPNS0_4HeapEbbRKNSt3__112basic_stringIcNS5_11char_traitsIcEENS5_9allocatorIcEEEEb
_ZN3art2gc5space19LargeObjectMapSpace5AllocEPNS_6ThreadEmPmS5_S5_
_ZN3art11interpreter17AbortTransactionFEPNS_6ThreadEPKcz
_ZN3art7Runtime20RequestMetricsReportEb
_ZNK3art8verifier7RegType8HighHalfEPNS0_12RegTypeCacheE
_ZN3art7Runtime21ScopedThreadPoolUsageC1Ev
_ZN3art2ti29AGENT_ON_ATTACH_FUNCTION_NAMEE
_ZN3art2gc9collector11MarkCompact17MarkHeapReferenceEPNS_6mirror13HeapReferenceINS3_6ObjectEEEb
_ZN3art2gc5space11RegionSpace34AssertThreadLocalBuffersAreRevokedEPNS_6ThreadE
_ZNK3art12StackVisitor13GetGPRAddressEj
_ZNSt3__16vectorIjNS_9allocatorIjEEE21__push_back_slow_pathIRKjEEvOT_
_ZN3art7Monitor7DeflateEPNS_6ThreadENS_6ObjPtrINS_6mirror6ObjectEEE
_ZN3art2gc10accounting27ModUnionTableReferenceCache12VisitObjectsEPFvPNS_6mirror6ObjectEPvES6_
_ZN3art8verifier12RegTypeCacheC2EPNS_11ClassLinkerEbRNS_20ScopedArenaAllocatorEb
_ZN3art11interpreter16UnstartedRuntime37UnstartedJdkUnsafeCompareAndSetObjectEPNS_6ThreadEPNS_11ShadowFrameEPNS_6JValueEm
_ZN3art11interpreter16UnstartedRuntime30UnstartedJNIClassGetNameNativeEPNS_6ThreadEPNS_9ArtMethodEPNS_6mirror6ObjectEPjPNS_6JValueE
_ZN3art6mirror9Throwable13GetStackTraceEv
_ZN3art18RuntimeArgumentMap21HeapTargetUtilizationE
_ZN3art7BarrierC2Eib
_ZN3art11ClassLinker14EnsureResolvedEPNS_6ThreadEPKcNS_6ObjPtrINS_6mirror5ClassEEE
_ZN3art15CompatFrameworkC1Ev
mspace_realloc
_ZN3art34register_libcore_util_CharsetUtilsEP7_JNIEnv
_ZN3art53register_org_apache_harmony_dalvik_ddmc_DdmVmInternalEP7_JNIEnv
_ZN3com7android3art12KeyValuePair4readEPN8tinyxml210XMLElementE
_ZTVN3art2gc9collector17ConcurrentCopying38ActivateReadBarrierEntrypointsCallbackE
_ZN3art8CodeInfoC1EPKNS_20OatQuickMethodHeaderE
_ZN3art3jit3Jit24CompileMethodFromProfileEPNS_6ThreadEPNS_11ClassLinkerEjNS_6HandleINS_6mirror8DexCacheEEENS6_INS7_11ClassLoaderEEEbb
_ZTVN3art21RuntimeArgumentMapKeyINS_9hiddenapi17EnforcementPolicyEEE
_ZN3art17FindFieldFromCodeILNS_13FindFieldTypeE42EEEPNS_8ArtFieldEjPNS_9ArtMethodEPNS_6ThreadEb
_ZN3art3Dbg22DdmHandleHpsgNhsgChunkENS0_8HpsgWhenENS0_8HpsgWhatEb
_ZN3art2gc9collector17ConcurrentCopying24VerifyNoMissingCardMarksEv
_ZN3art2gc5space13FreeListSpaceD0Ev
_ZN3art2gc13TaskProcessor4StopEPNS_6ThreadE
_ZN3art6Thread39InternalStackTraceToStackFrameInfoArrayERKNS_33ScopedObjectAccessAlreadyRunnableElP8_jobjectiiiP13_jobjectArray
_ZN3art10ThreadListD1Ev
_ZTVN3art13VariantMapKeyINS_17ExperimentalFlagsEEE
_ZN3art13SignalCatcherD2Ev
_ZNK3art20OatQuickMethodHeader19IsNterpMethodHeaderEv
_ZN3art47register_java_util_concurrent_atomic_AtomicLongEP7_JNIEnv
_ZN3art8verifier12RegisterLine21MarkRefsAsInitializedEPNS0_14MethodVerifierERKNS0_7RegTypeE
_ZTVN3art26StackReflectiveHandleScopeILm0ELm1EEE
_ZN3art13DlOpenOatFile20host_dlopen_handles_E
artQuickGenericJniTrampoline
_ZN3art2gc9collector9MarkSweep10PausePhaseEv
_ZN3artlsERNSt3__113basic_ostreamIcNS0_11char_traitsIcEEEENS_11ImageHeader11ImageMethodE
_ZN3art17CanMethodUseNterpEPNS_9ArtMethodENS_14InstructionSetE
_ZlsRNSt3__113basic_ostreamIcNS_11char_traitsIcEEEERK14jobjectRefType
_ZN3art6mirror5Class17SetStatusInternalENS_11ClassStatusE
GetAarch64FeaturesEnumName
_ZTVN3art2gc9collector9MarkSweep13MarkStackTaskILb0EEE
_ZN3art3jit12JitCodeCache22TransitionToDebuggableEv
_ZN3art6mirror5Class20EnsureStaticFieldIdsENS_6HandleIS1_EE
_ZNK3art6Thread9DumpStackERNSt3__113basic_ostreamIcNS1_11char_traitsIcEEEERN11unwindstack20AndroidLocalUnwinderEbb
_ZNK3art8verifier8CharType4DumpEv
artAllocArrayFromCodeResolvedRosAllocInstrumented
_ZNK3art11ElfFileImplINS_10ElfTypes64EE22GetDynamicSectionStartEv
_ZN3art2gc10accounting13RememberedSet23UpdateAndMarkReferencesEPNS0_5space15ContinuousSpaceEPNS0_9collector16GarbageCollectorE
_ZNK3com7android3art12KeyValuePair4getKEv
_ZN3art6mirror5Class27CheckIsVisibleWithTargetSdkEPNS_6ThreadE
_ZNK3com7android3art12KeyValuePair4hasVEv
_ZN3art15instrumentation15Instrumentation39UninstrumentQuickAllocEntryPointsLockedEv
_ZN3art6Thread13FinishStartupEv
_ZN3art8verifier11BooleanType7DestroyEv
_ZNK3art18GcVisitedArenaPool17GetBytesAllocatedEv
_ZN3art2gc9collector11MarkCompact23AddLinearAllocSpaceDataEPhm
_ZN3art11ClassLinker17VerifyRecordClassENS_6HandleINS_6mirror5ClassEEENS_6ObjPtrIS3_EE
_ZN3art7Runtime26ThrowTransactionAbortErrorEPNS_6ThreadE
_ZTVNSt3__110__function6__funcIPFvN7android4base5LogIdENS3_11LogSeverityEPKcS7_jS7_ENS_9allocatorIS9_EES8_EE
art_d2i
_ZN3art6HandleINS_6mirror9VarHandleEE13ObjectFromGdbEv
_ZTVN3art30BuildInternalStackTraceVisitorE
_ZN3art27Arm64InstructionSetFeatures11FromCpuInfoEv
_ZNK3art2gc4Heap15GetVerificationEv
_ZN3art2gc9allocator8RosAlloc8AllocRunEPNS_6ThreadEm
_ZNK3art2gc10accounting17MemoryRangeBitmapILm8EE4TestEm
_ZN3art2gc5space13FreeListSpace33SetAllLargeObjectsAsZygoteObjectsEPNS_6ThreadEb
_ZNK3art11ElfFileImplINS_10ElfTypes64EE22GetProgramHeadersStartEv
_ZN3art2gc9collector17ConcurrentCopying17DumpReferenceInfoEPNS_6mirror6ObjectEPKcS7_
_ZN3art6mirror5Class15FindClassMethodENSt3__117basic_string_viewIcNS2_11char_traitsIcEEEERKNS_9SignatureENS_11PointerSizeE
_ZNK3art25X86InstructionSetFeatures26AddFeaturesFromSplitStringERKNSt3__16vectorINS1_12basic_stringIcNS1_11char_traitsIcEENS1_9allocatorIcEEEENS6_IS8_EEEEbPS8_
art_d2l
_ZN3art11ClassLinker13AllocDexCacheEPNS_6ThreadERKNS_7DexFileE
_ZN3art3Dbg26DbgThreadLifecycleCallback11ThreadStartEPNS_6ThreadE
artGet32InstanceFromCompiledCode
_ZN3art11ClassLinker11InsertClassEPKcNS_6ObjPtrINS_6mirror5ClassEEEm
artAllocStringFromStringFromCodeRegionTLAB
artSetCharStaticFromCompiledCode
artCompileOptimized
_ZN3art11interpreter16UnstartedRuntime37UnstartedSystemGetPropertyWithDefaultEPNS_6ThreadEPNS_11ShadowFrameEPNS_6JValueEm
_ZN3art11Transaction9ObjectLog13LogShortValueENS_12MemberOffsetEsb
_ZN3art5Locks22runtime_shutdown_lock_E
_ZN3art2gc5space16BumpPointerSpace16ClampGrowthLimitEm
_ZN3art2gc9collector9MarkSweep17ProcessReferencesEPNS_6ThreadE
_ZN3art2gc4Heap16RecordFreeRevokeEv
_ZN3art2gc17GCCriticalSection5EnterENS0_7GcCauseENS0_13CollectorTypeE
_ZNK3art2gc5space11ZygoteSpace4DumpERNSt3__113basic_ostreamIcNS3_11char_traitsIcEEEE
_ZN3art16WellKnownClasses33java_io_FileDescriptor_descriptorE
_ZN3art18RuntimeArgumentMap4HelpE
_ZN3art2gc9collector11MarkCompact11FinishPhaseEv
_ZN3art11interpreter16UnstartedRuntime39UnstartedClassLoaderGetResourceAsStreamEPNS_6ThreadEPNS_11ShadowFrameEPNS_6JValueEm
_ZN3art2gc9collector9SemiSpace15ResizeMarkStackEm
CpuFeatures_CloseFile
_ZN3art2gc9allocator8RosAlloc9DumpStatsERNSt3__113basic_ostreamIcNS3_11char_traitsIcEEEE
_ZN3art10ThreadPool25WaitForWorkersToBeCreatedEv
_ZN3art16OatFileAssistant11OatFileInfoC1EPS0_b
_ZN3art11Transaction18RecordWriteField32EPNS_6mirror6ObjectENS_12MemberOffsetEjb
_ZN3art11TransactionC2EbPNS_6mirror5ClassEPNS_10ArenaStackEPNS_9ArenaPoolE
_ZN3art11OatFileBase13ComputeFieldsERKNSt3__112basic_stringIcNS1_11char_traitsIcEENS1_9allocatorIcEEEEPS7_
_ZN3art11ClassLinker9FindClassEPNS_6ThreadEPKcNS_6HandleINS_6mirror11ClassLoaderEEE
_ZN3art11ClassLinker16CreateArrayClassEPNS_6ThreadEPKcmNS_6HandleINS_6mirror11ClassLoaderEEE
_ZN3art2gc9collector17ConcurrentCopying15InitializePhaseEv
_ZN3art11HeapSampler23PickAndAdjustNextSampleEm
_ZN3art9ArtMethod28FindObsoleteDexClassDefIndexEv
_ZNK3art11ElfFileImplINS_10ElfTypes64EE12ValidPointerEPKh
_ZN3art6HandleINS_6mirror11ObjectArrayINS1_11ConstructorEEEE13ObjectFromGdbEv
_ZN3art13ProfilingInfo14GetInlineCacheEj
_ZN3art10XzCompressENS_8ArrayRefIKhEEPNSt3__16vectorIhNS3_9allocatorIhEEEEim
_ZN3art11interpreter16UnstartedRuntime33UnstartedJNIArrayCreateMultiArrayEPNS_6ThreadEPNS_9ArtMethodEPNS_6mirror6ObjectEPjPNS_6JValueE
_ZN3art12VerifyAccessEPNS_6ThreadENS_6ObjPtrINS_6mirror6ObjectEEENS2_INS3_5ClassEEEjPS7_m
_ZTVNSt3__120__shared_ptr_emplaceIN3art6MemoryILm1024EEENS_9allocatorIS3_EEEE
_ZNK3art8verifier18ImpreciseConstType4DumpEv
_ZN3art16WellKnownClasses27java_lang_Character_valueOfE
_ZN3art6Thread34SetIsGcMarkingAndUpdateEntrypointsEb
_ZN3art6mirror14PrimitiveArrayIdE5AllocEPNS_6ThreadEm
_ZN3art6mirror6String14FillBytesUTF16ENS_6HandleINS0_14PrimitiveArrayIaEEEEi
_ZN3art16RuntimeCallbacks25AddRuntimeSigQuitCallbackEPNS_22RuntimeSigQuitCallbackE
_ZN3art8verifier8NullType9instance_E
_ZThn136_N3art2gc5space16BumpPointerSpace19GetObjectsAllocatedEv
_ZN3art3jit12JitCodeCache14GetJniStubCodeEPNS_9ArtMethodE
artGetCharInstanceFromCode
_ZN3art6Thread12ProtectStackEb
_ZN3art11interpreter16UnstartedRuntime55UnstartedJNIJdkUnsafeGetArrayBaseOffsetForComponentTypeEPNS_6ThreadEPNS_9ArtMethodEPNS_6mirror6ObjectEPjPNS_6JValueE
_ZNK3com7android3art22SystemServerComponents5writeERNSt3__113basic_ostreamIcNS3_11char_traitsIcEEEERKNS3_12basic_stringIcS6_NS3_9allocatorIcEEEE
_ZN3art16RuntimeCallbacks15ThreadParkStartEbl
_ZTVN3art8verifier18PreciseConstHiTypeE
_ZN3art2gc4Heap14GetNativeBytesEv
_ZN3art2gc5space10ImageSpace15BootImageLayout15ValidateOatFileERKNSt3__112basic_stringIcNS4_11char_traitsIcEENS4_9allocatorIcEEEESC_mmPSA_
_ZN3art8verifier11BooleanType14CreateInstanceENS_6ObjPtrINS_6mirror5ClassEEERKNSt3__117basic_string_viewIcNS6_11char_traitsIcEEEEt
_ZN3art11ClassLinker18AllocArtFieldArrayEPNS_6ThreadEPNS_11LinearAllocEm
artJniMonitoredMethodStart
_ZN3art8verifierlsERNSt3__113basic_ostreamIcNS1_11char_traitsIcEEEENS0_10VerifyModeE
_ZN3art15instrumentation15Instrumentation14GetReturnValueEPNS_9ArtMethodEPbPmS5_
_ZN3art11interpreter21DoVarHandleGetAcquireEPNS_6ThreadERNS_11ShadowFrameEPKNS_11InstructionEtPNS_6JValueE
_ZNK3art12StackVisitor15IsAccessibleGPREj
_Z23memcmp16_generic_staticPKtS0_m
_ZN3art25BuildQuickArgumentVisitor5VisitEv
_ZN3art6Thread27SetStackEndForStackOverflowEv
_ZN3art3jit9ZygoteMap10InitializeEj
_ZTVNSt3__120__shared_ptr_emplaceIN3art8verifier10VerifyModeENS_9allocatorIS3_EEEE
_ZN3art6mirror10MethodType16PrettyDescriptorEv
_ZN3art15instrumentation15Instrumentation24MethodSupportsExitEventsEPNS_9ArtMethodEPKNS_20OatQuickMethodHeaderE
_ZN3art16OatFileAssistant21GetOptimizationStatusEPNSt3__112basic_stringIcNS1_11char_traitsIcEENS1_9allocatorIcEEEES8_S8_S8_
_ZN3art10CmpgDoubleEdd
_ZNK3com7android3art9CacheInfo30getFirstSystemServerComponentsEv
_ZN3art11InternTable10InternWeakEPKc
_ZTVN3art17VerifyRootVisitorE
_ZN3com7android3art10ModuleInfo4readEPN8tinyxml210XMLElementE
_ZN3art2gc5space13DlMallocSpace5ClearEv
_ZNK3art25BaseReflectiveHandleScope8DescribeERNSt3__113basic_ostreamIcNS1_11char_traitsIcEEEE
_ZN3art22ClassHierarchyAnalysis13GetDependentsEPNS_9ArtMethodE
_ZN3art2gc14ReferenceQueueC1EPNS_5MutexE
_ZThn136_N3art2gc5space16BumpPointerSpace17GetBytesAllocatedEv
_ZN3art6mirror5Class34FindVirtualMethodForInterfaceSuperEPNS_9ArtMethodENS_11PointerSizeE
_ZN3art2gc5space5Space28AsContinuousMemMapAllocSpaceEv
__dex_debug_register_code_ptr
_ZN3art2gc10accounting17MemoryRangeBitmapILm1024EE5ClearEm
_ZN3art3jni12JniIdManager10StartDeferEv
_ZN3art16OatFileAssistant11OatFileInfo11ReleaseFileEv
artAllocStringFromBytesFromCodeDlMalloc
_ZN3com7android3art21SystemServerComponent4readEPN8tinyxml210XMLElementE
_ZNSt3__127__tree_balance_after_insertIPNS_16__tree_node_baseIPvEEEEvT_S5_
_ZN3art2gc9collector9SemiSpace27RevokeAllThreadLocalBuffersEv
_ZNK3com7android3art21SystemServerComponent16hasIsInClasspathEv
_ZNK3art2gc10accounting17MemoryRangeBitmapILm16EE16BitIndexFromAddrEm
_ZN3art25ArmInstructionSetFeatures15FromCpuFeaturesEv
artAllocStringFromCharsFromCodeDlMalloc
NterpDoSparseSwitch
_ZN3art12FaultManager21AddGeneratedCodeRangeEPKvm
_ZN3art11interpreter6DoCallILb1EEEbPNS_9ArtMethodEPNS_6ThreadERNS_11ShadowFrameEPKNS_11InstructionEtbPNS_6JValueE
_ZTTNSt3__119basic_ostringstreamIcNS_11char_traitsIcEENS_9allocatorIcEEEE
_ZN3art2gc9collector17ConcurrentCopying22AddLiveBytesAndScanRefEPNS_6mirror6ObjectE
_ZTVN3art25JniIdReflectiveSourceInfoIP9_jfieldIDvEE
_ZN3art11Transaction16ResolveStringLog10VisitRootsEPNS_11RootVisitorE
_ZN3art17ConditionVariable6SignalEPNS_6ThreadE
_ZN3art26ThrowClassCircularityErrorENS_6ObjPtrINS_6mirror5ClassEEEPKcz
_ZN3art10ClassTableC2Ev
_ZN3art11interpreter16UnstartedRuntime31UnstartedClassGetDeclaredFieldsEPNS_6ThreadEPNS_11ShadowFrameEPNS_6JValueEm
_ZN3art35ScopedAssertNoNewTransactionRecords15RemoveAssertionEPNS_11TransactionE
_ZN3art12InvokeMethodILNS_11PointerSizeE8EEEP8_jobjectRKNS_33ScopedObjectAccessAlreadyRunnableES3_S3_S3_m
_ZN3art3jit3Jit15AddTimingLoggerERKNS_12TimingLoggerE
_ZN3art8verifier13ClassVerifier4InitEPNS_11ClassLinkerE
_ZN3art6Thread21HandleScopeVisitRootsEPNS_11RootVisitorEj
_ZNK3com7android3art9CacheInfo28getFirstDex2oatBootClasspathEv
_ZN3art11interpreter16UnstartedRuntime27UnstartedClassForNameCommonEPNS_6ThreadEPNS_11ShadowFrameEPNS_6JValueEmb
_ZN3art25register_java_lang_ThreadEP7_JNIEnv
_ZN3artlsERNSt3__113basic_ostreamIcNS0_11char_traitsIcEEEENS_14VisitRootFlagsE
_ZN3artlsERNSt3__113basic_ostreamIcNS0_11char_traitsIcEEEERKNS_12MutatorMutexE
_ZN3art16WellKnownClasses33java_lang_IllegalAccessError_initE
_ZN3art9odrefresh22UploadStatsIfAvailableEPNSt3__112basic_stringIcNS1_11char_traitsIcEENS1_9allocatorIcEEEE
_ZNK3art8CodeInfo4DumpEPNS_31VariableIndentationOutputStreamEjbNS_14InstructionSetE
_ZN3art17SuspensionHandler6ActionEiP7siginfoPv
_ZN3art6HandleINS_6mirror14PrimitiveArrayIsEEE13ObjectFromGdbEv
_ZN3art8verifier14MethodVerifier13LogVerifyInfoEv
_ZNK3com7android3art9CacheInfo16getBootClasspathEv
_ZN3art6mirror5Class11SetDexCacheENS_6ObjPtrINS0_8DexCacheEEE
_ZN3art2gc5space11RegionSpace12SetFromSpaceEPNS0_10accounting16ReadBarrierTableENS2_8EvacModeEb
_ZN3art2gc5space13RosAllocSpace19GetObjectsAllocatedEv
_ZN3art6Thread18ThreadExitCallbackEPv
_ZN3art2gc5space13FreeListSpace5AllocEPNS_6ThreadEmPmS5_S5_
_ZTVN3art8verifier30UnresolvedUninitializedRefTypeE
_ZN3art14OatFileManager14DumpForSigQuitERNSt3__113basic_ostreamIcNS1_11char_traitsIcEEEE
_ZNK3art10ClassTable29NumReferencedNonZygoteClassesEv
_ZN3art2gc10accounting9CardTableD2Ev
_ZN3art6ThreadD1Ev
artGetBooleanStaticFromCompiledCode
_ZNK3art18ClassLoaderContext24EncodeSharedLibAndParentERKNS0_15ClassLoaderInfoERKNSt3__112basic_stringIcNS4_11char_traitsIcEENS4_9allocatorIcEEEEbPS1_RNS4_19basic_ostringstreamIcS7_S9_EE
_ZTVN3art2gc9collector11MarkCompact12FlipCallbackE
_ZN3art2gc5space16BumpPointerSpace34AssertThreadLocalBuffersAreRevokedEPNS_6ThreadE
_ZN3art18RuntimeArgumentMap21HookIsSensitiveThreadE
_ZN3art2ti9AgentSpec6AttachEP7_JNIEnvP8_jobjectPiPNS0_9LoadErrorEPNSt3__112basic_stringIcNS9_11char_traitsIcEENS9_9allocatorIcEEEE
_ZTVNSt3__120__shared_ptr_emplaceIbNS_9allocatorIbEEEE
_ZN3art8verifier14MethodVerifier10VisitRootsEPNS_11RootVisitorERKNS_8RootInfoE
_ZN3artlsERNSt3__113basic_ostreamIcNS0_11char_traitsIcEEEENS_24DeoptimizationMethodTypeE
_ZN3art15instrumentation15Instrumentation13IsDeoptimizedEPNS_9ArtMethodE
_ZN3art18RuntimeArgumentMap11FingerprintE
_ZN3art7AppInfoC2Ev
_ZNK3art7Runtime22IsVerificationSoftFailEv
_ZN3art11annotations23GetParameterAnnotationsEPNS_9ArtMethodE
_ZN3art2gc4Heap17SetIdealFootprintEm
_ZN3art2gc4Heap22VerifyMissingCardMarksEv
_ZN3art5hprof5Hprof30AddRuntimeInternalObjectsFieldEPNS_6mirror5ClassE
_ZN3art18RuntimeArgumentMap9AgentPathE
_ZNK3art8verifier30UnresolvedUninitializedRefType15CheckInvariantsEv
_ZN3art28ThrowIllegalAccessErrorFieldENS_6ObjPtrINS_6mirror5ClassEEEPNS_8ArtFieldE
_ZN3art2gc9collector17ConcurrentCopyingD2Ev
_ZTVN3art2gc5space11RegionSpaceE
_ZThn136_N3art2gc5space13RosAllocSpace24RevokeThreadLocalBuffersEPNS_6ThreadE
_ZTVN3art19OatFileBackedByVdexE
_ZTVN3art8verifier8ByteTypeE
_ZNK3art9odrefresh16OdrMetricsRecord11WriteToFileERKNSt3__112basic_stringIcNS2_11char_traitsIcEENS2_9allocatorIcEEEE
_ZTVN3art15CHAStackVisitorE
_ZNK3art2gc4Heap25AllowNewAllocationRecordsEv
_ZN3art18RuntimeArgumentMap13LowMemoryModeE
_ZNK3art29Riscv64InstructionSetFeatures8AsBitmapEv
_ZN3art5Roles16uninterruptible_E
_ZN3art11ElfFileImplINS_10ElfTypes64EED1Ev
_ZN3art21JavaStackTraceHandlerC2EPNS_12FaultManagerE
_ZN3art6HandleINS_6mirror14PrimitiveArrayIaEEE13ObjectFromGdbEv
_ZN3art7Runtime23SetSignalHookDebuggableEb
artAllocStringFromCharsFromCodeDlMallocInstrumented
_ZN3art5Locks16breakpoint_lock_E
_ZNK3art2gc4Heap23GetObjectsAllocatedEverEv
_ZN3art3jit12JitCodeCache12RemoveMethodEPNS_9ArtMethodEb
artAllocStringObjectRegionTLABInstrumented
_ZNK3art2gc10accounting11SpaceBitmapILm8EE19FindPrecedingObjectEmm
_ZN3art2gc14ReferenceQueue23DequeuePendingReferenceEv
_ZN3art11ClassLinkerD2Ev
_ZN3art6mirror14StackFrameInfo12AssignFieldsENS_6HandleINS0_5ClassEEENS2_INS0_10MethodTypeEEENS2_INS0_6StringEEES8_ii
_ZN3art13ParsedOptionsC2Ev
_ZN3art6HandleINS_6mirror11ObjectArrayINS1_6StringEEEE13ObjectFromGdbEv
_ZN3art9JNIEnvExt20LocalRefCookieOffsetEm
_ZN3art13DlOpenOatFile6DlopenERKNSt3__112basic_stringIcNS1_11char_traitsIcEENS1_9allocatorIcEEEEPNS_6MemMapEPS7_
_ZN3art2gc9collector17ConcurrentCopying27SwitchToSharedMarkStackModeEv
_ZN3art7Runtime11AttachAgentEP7_JNIEnvRKNSt3__112basic_stringIcNS3_11char_traitsIcEENS3_9allocatorIcEEEEP8_jobject
artGetShortInstanceFromCode
_ZN3art6mirror6Object14hash_code_seedE
_ZN3art16OatFileAssistant11OatFileInfo5ResetERKNSt3__112basic_stringIcNS2_11char_traitsIcEENS2_9allocatorIcEEEEbiii
_ZN3art16WellKnownClasses60jdk_internal_math_FloatingDecimal_BinaryToASCIIBuffer_bufferE
_ZN3art2gc14ReferenceQueueC2EPNS_5MutexE
_ZN3art12XzDecompressENS_8ArrayRefIKhEEPNSt3__16vectorIhNS3_9allocatorIhEEEE
_ZTVN3art13VariantMapKeyIPNSt3__16vectorINS1_10unique_ptrIKNS_7DexFileENS1_14default_deleteIS5_EEEENS1_9allocatorIS8_EEEEEE
_ZNK3com7android4apex8ApexInfo14getVersionNameEv
_ZN3art18GcVisitedArenaPool19AddPreZygoteForkMapEm
_ZNK3art2gc10accounting11SpaceBitmapILm8EE4TestEPKNS_6mirror6ObjectE
_ZN3art6mirror9Throwable16GetDetailMessageEv
_ZN3art6mirror14PrimitiveArrayIdE16GetWithoutChecksEi
_ZN3art16WellKnownClasses35java_lang_NoClassDefFoundError_initE
_ZN3art6Thread25SetUpAlternateSignalStackEv
_ZN3art11annotations23GetAnnotationsForMethodEPNS_9ArtMethodE
_ZN3art2gc10accounting17MemoryRangeBitmapILm1024EE13SetBitmapSizeEm
_ZN3art2gc5space10ImageSpace25ExpandMultiImageLocationsENS_8ArrayRefIKNSt3__112basic_stringIcNS4_11char_traitsIcEENS4_9allocatorIcEEEEEERSB_b
_ZN3art2gc20AllocRecordObjectMapC2Ev
_ZN3art36register_java_lang_reflect_ParameterEP7_JNIEnv
_ZN3art16WellKnownClasses20java_lang_Thread_runE
_ZNK3art11ElfFileImplINS_10ElfTypes32EE22FindDynamicValueByTypeEi
_ZN3art13ObjectTryLockINS_6mirror5ClassEEC2EPNS_6ThreadENS_6HandleIS2_EE
_ZN3art2ti5AgentC2EOS1_
_ZNK3art11ClassLinker14VisitDexCachesEPNS_15DexCacheVisitorE
_ZN3art3Dbg13IsJdwpAllowedEv
_ZN3art6HandleINS_6mirror18EmulatedStackFrameEE13ObjectFromGdbEv
_ZTVN3art17JavaFrameRootInfoE
_ZN3art6mirror14PrimitiveArrayItE5AllocEPNS_6ThreadEm
_ZN3art6Thread9InterruptEPS0_
_ZN3art8verifier12RegTypeCache16VisitStaticRootsEPNS_11RootVisitorE
artGetCharStaticFromCompiledCode
_ZThn136_N3art2gc5space13DlMallocSpace28LogFragmentationAllocFailureERNSt3__113basic_ostreamIcNS3_11char_traitsIcEEEEm
_ZN3art2gc5space13RosAllocSpace14CreateRosAllocEPvmmmbb
_ZN3art9hiddenapi6detail30HandleCorePlatformApiViolationINS_9ArtMethodEEEbPT_RKNS0_13AccessContextENS0_12AccessMethodENS0_17EnforcementPolicyE
_ZN3art12ProfileSaver4StopEb
_ZN3art10ClassTable13InsertOatFileEPKNS_7OatFileE
_ZN3art6mirror14PrimitiveArrayIlE7GetDataEv
_ZN3art5arm64lsERNSt3__113basic_ostreamIcNS1_11char_traitsIcEEEERKNS0_9DRegisterE
_ZN3art11MemMapArenaD1Ev
_ZN3art10ObjectLockINS_6mirror5ClassEED1Ev
_ZN3art2gc4Heap15ChangeCollectorENS0_13CollectorTypeE
_ZN3art8verifier9ShortType7DestroyEv
_ZTVN3art8verifier20ImpreciseConstLoTypeE
_ZN3art29Riscv64InstructionSetFeatures15FromCpuFeaturesEv
artThrowNullPointerExceptionFromSignal
_ZNK3art11ClassLinker17VisitClassLoadersEPNS_18ClassLoaderVisitorE
_ZNK3art3jit12JitCodeCache15IsAtMaxCapacityEv
_ZNK3art11ElfFileImplINS_10ElfTypes64EE5BeginEv
_ZN3art2gc9allocator19ArtRosAllocMoreCoreEPNS1_8RosAllocEl
_ZN3art2gc4Heap28PrePauseRosAllocVerificationEPNS0_9collector16GarbageCollectorE
_ZN3art2gc5space11RegionSpace12CreateMemMapERKNSt3__112basic_stringIcNS3_11char_traitsIcEENS3_9allocatorIcEEEEmPh
_ZN3art18RuntimeArgumentMap17MemoryMaximumSizeE
_ZN3art16WellKnownClasses22StringInitToEntryPointEPNS_9ArtMethodE
_ZN3art2gc20AllocRecordObjectMap22SweepAllocationRecordsEPNS_15IsMarkedVisitorE
_ZN3art6mirror10MethodType13IsConvertibleENS_6ObjPtrIS1_EE
_ZN3art14OatFileManager26UnRegisterAndDeleteOatFileEPKNS_7OatFileE
_ZN3art18RuntimeArgumentMap14ForceJitZygoteE
_ZN3com7android3art16KeyValuePairListC2ENSt3__16vectorINS1_12KeyValuePairENS3_9allocatorIS5_EEEE
_ZN3art11InternTable16LookupWeakLockedENS_6ObjPtrINS_6mirror6StringEEE
_ZN3art2gc4Heap26FindModUnionTableFromSpaceEPNS0_5space5SpaceE
_ZNK3art3jit12JitCodeCache23PrivateRegionContainsPcEPKv
_ZN3art6mirror8DexCache17ResetNativeArraysEv
_ZNK3art6Thread25CreateAnnotatedStackTraceERKNS_33ScopedObjectAccessAlreadyRunnableE
_ZN3art8verifier12RegisterLine14MergeRegistersEPNS0_14MethodVerifierEPKS1_
_ZN3art7BarrierD2Ev
_ZNK3art10OatDexFile11OpenDexFileEPNSt3__112basic_stringIcNS1_11char_traitsIcEENS1_9allocatorIcEEEE
_ZTVN3art2gc10accounting13ModUnionTableE
_ZNK3art2gc4Heap16GetRosAllocSpaceEPNS0_9allocator8RosAllocE
_ZN3art7Monitor20PrettyContentionInfoERKNSt3__112basic_stringIcNS1_11char_traitsIcEENS1_9allocatorIcEEEEiPNS_9ArtMethodEjm
_ZN3art2ti9AgentSpecC2ERKNSt3__112basic_stringIcNS2_11char_traitsIcEENS2_9allocatorIcEEEE
_ZN3art2gc9collector17ConcurrentCopying17PushOntoMarkStackEPNS_6ThreadEPNS_6mirror6ObjectE
_ZN3art11ClassLinker19RegisterClassLoaderENS_6ObjPtrINS_6mirror11ClassLoaderEEE
_ZNK3art15instrumentation15Instrumentation18FieldReadEventImplEPNS_6ThreadENS_6ObjPtrINS_6mirror6ObjectEEEPNS_9ArtMethodEjPNS_8ArtFieldE
_ZN3art18RuntimeArgumentMap8GcOptionE
_ZN3art18RuntimeArgumentMap12OpaqueJniIdsE
artJniReadBarrier
_ZN3art17FindFieldFromCodeILNS_13FindFieldTypeE25EEEPNS_8ArtFieldEjPNS_9ArtMethodEPNS_6ThreadEb
_ZN3art2gc9allocator8RosAlloc16AllocLargeObjectEPNS_6ThreadEmPmS5_S5_
_ZN3art11annotations31GetSignatureAnnotationForMethodEPNS_9ArtMethodE
_ZN3art6mirror11Constructor19CreateFromArtMethodILNS_11PointerSizeE4EEENS_6ObjPtrIS1_EEPNS_6ThreadEPNS_9ArtMethodE
_ZN3art2gc5space10ImageSpace22VerifyImageAllocationsEv
_ZTVNSt3__110__function6__funcIZN3art9hiddenapi6detail11GetDexFlagsINS2_8ArtFieldEEEjPT_EUlRKNS2_13ClassAccessor5FieldEE_NS_9allocatorISD_EEFvSC_EEE
_ZN3art6mirror5Class20GetAccessFlagsDCheckILNS_17VerifyObjectFlagsE7EEEvv
_ZN3art20NonDebuggableClasses22non_debuggable_classesE
_ZN3art8verifier12VerifierDepsC2ERKNSt3__16vectorIPKNS_7DexFileENS2_9allocatorIS6_EEEEb
artSet16InstanceFromCompiledCode
_ZN3art5Mutex13ExclusiveLockEPNS_6ThreadE
_ZN3art2gc9collector9MarkSweep22FindDefaultSpaceBitmapEv
_ZN3art11Transaction30UndoResolveStringModificationsEv
_ZN3art16WellKnownClasses58dalvik_system_BaseDexClassLoader_sharedLibraryLoadersAfterE
_ZN3art11TransactionC1EbPNS_6mirror5ClassEPNS_10ArenaStackEPNS_9ArenaPoolE
_ZNK3art8verifier30UninitializedThisReferenceType4DumpEv
_ZN3art3jit3Jit19MapBootImageMethodsEv
_ZN3art3jit3Jit14AddCompileTaskEPNS_6ThreadEPNS_9ArtMethodENS_15CompilationKindEb
_ZN3art9JavaVMExt19AllowNewWeakGlobalsEv
_ZNK3art8VdexFile26GetNextTypeLookupTableDataEPKhj
_ZN3art2gc9allocator8RosAlloc3Run15InspectAllSlotsEPFvPvS4_mS4_ES4_
_ZNSt3__112__hash_tableINS_17__hash_value_typeINS_12basic_stringIcNS_11char_traitsIcEENS_9allocatorIcEEEES7_EENS_22__unordered_map_hasherIS7_S8_NS_4hashIS7_EELb1EEENS_21__unordered_map_equalIS7_S8_NS_8equal_toIS7_EELb1EEENS5_IS8_EEE8__rehashEm
_ZN3art3jni34ScopedEnableSuspendAllJniIdQueriesD2Ev
_ZN3art6Thread24PopDeoptimizationContextEPNS_6JValueEPNS_6ObjPtrINS_6mirror9ThrowableEEEPbPNS_24DeoptimizationMethodTypeE
_ZN3art2gc10accounting27ModUnionTableReferenceCache12ProcessCardsEv
_ZN3art2gc9collector11MarkCompact17ProcessReferencesEPNS_6ThreadE
_ZN3art35InvokeVirtualOrInterfaceWithJValuesIP10_jmethodIDEENS_6JValueERKNS_33ScopedObjectAccessAlreadyRunnableEP8_jobjectT_PK6jvalue
_ZN3art2gc10accounting17MemoryRangeBitmapILm16EEC2EONS_6MemMapEmm
_ZN3art2gc9collector11MarkCompact36UpdateNonMovingSpaceBlackAllocationsEv
_ZN3art10ObjectLockINS_6mirror8ClassExtEED1Ev
_ZN3art2gc4Heap36RevokeAllThreadLocalAllocationStacksEPNS_6ThreadE
_ZNK3art2gc5space19LargeObjectMapSpace13ForEachMemMapENSt3__18functionIFvRKNS_6MemMapEEEE
_ZN3art7Monitor21AtraceMonitorLockImplEPNS_6ThreadENS_6ObjPtrINS_6mirror6ObjectEEEb
_ZN3art18RuntimeArgumentMap19MadviseRandomAccessE
_ZNK3art11ClassLinker26DenyAccessBasedOnPublicSdkEPNS_8ArtFieldE
_ZN3art2gc4Heap15ThreadFlipBeginEPNS_6ThreadE
_ZN3art11interpreter20SendMethodExitEventsINS_13MutableHandleINS_6mirror6ObjectEEEEEbPNS_6ThreadEPKNS_15instrumentation15InstrumentationERNS_11ShadowFrameEPNS_9ArtMethodERT_
_ZN3art6mirror5Class20GetAccessFlagsDCheckILNS_17VerifyObjectFlagsE2EEEvv
_ZN3art11Transaction26VisitResolveMethodTypeLogsEPNS_11RootVisitorE
_ZNSt3__112__deque_baseImNS_9allocatorImEEED2Ev
_ZN3art2gclsERNSt3__113basic_ostreamIcNS1_11char_traitsIcEEEENS0_13AllocatorTypeE
_ZN3art6HandleINS_6mirror11ObjectArrayINS1_6MethodEEEE10GetFromGdbEv
_ZN3art15instrumentation15Instrumentation32MaybeRestoreInstrumentationStackEv
_ZN3art9JavaVMExtD2Ev
_ZNK3art14OatFileManager18ShouldLoadAppImageEPKNS_7OatFileE
_ZN3art28BuildQuickShadowFrameVisitor5VisitEv
_ZN3art27BuildGenericJniFrameVisitor5VisitEv
_ZNK3art10ClassTable19NumNonZygoteClassesENS_6ObjPtrINS_6mirror11ClassLoaderEEE
_ZNK3art2gc4Heap24DumpSpaceNameFromAddressEPKv
_ZN3art11Transaction16ResolveStringLogC1ENS_6ObjPtrINS_6mirror8DexCacheEEENS_3dex11StringIndexE
_ZN3art6mirror6Object12PrettyTypeOfEv
_ZThn136_N3art2gc5space13DlMallocSpace17GetBytesAllocatedEv
_ZN3art12FaultManagerC1Ev
_ZNK3art2gc4Heap20IsInBootImageOatFileEPKv
_ZN3art8VdexFile13OpenAtAddressEPhmbRKNSt3__112basic_stringIcNS2_11char_traitsIcEENS2_9allocatorIcEEEEbbPS8_
_ZTVN3art13VariantMapKeyINSt3__112basic_stringIcNS1_11char_traitsIcEENS1_9allocatorIcEEEEEE
_ZTVNSt3__120__shared_ptr_emplaceIiNS_9allocatorIiEEEE
_ZNK3art2gc28AllocRecordStackTraceElement17ComputeLineNumberEv
_ZN3art2gc5space11ZygoteSpace5AllocEPNS_6ThreadEmPmS5_S5_
_ZN3art3jni12JniIdManager4InitEPNS_6ThreadE
_ZN3art28RememberForGcArgumentVisitor5VisitEv
_ZN3art9ArtMethod12SetIntrinsicEj
_ZNK3art11ElfFileImplINS_10ElfTypes32EE16GetHashBucketNumEv
_ZN3art2gc13TaskProcessor11RunAllTasksEPNS_6ThreadE
_ZN3art12ProfileSaver26GetProfileSampleAnnotationEv
_ZN3art7Monitor7InstallEPNS_6ThreadE
_ZN3art11MonitorPool13AllocateChunkEv
_ZN3art5Locks25host_dlopen_handles_lock_E
_ZN3art11ClassLinker19IsDexFileRegisteredEPNS_6ThreadERKNS_7DexFileE
_ZN3art11ClassLinker16CreateProxyClassERNS_33ScopedObjectAccessAlreadyRunnableEP8_jstringP13_jobjectArrayP8_jobjectS6_S6_
_ZNK3art15instrumentation15Instrumentation17MethodUnwindEventEPNS_6ThreadEPNS_9ArtMethodEj
_ZNSt3__113basic_filebufIcNS_11char_traitsIcEEE7seekposENS_4fposI9mbstate_tEEj
_ZN3art2gc5space5Space12AsAllocSpaceEv
_ZNK3art6Thread24AssertNoPendingExceptionEv
_ZN3art11ImageHeader19GetImageSectionNameENS0_13ImageSectionsE
_ZN3art7Runtime21RecordWriteFieldShortEPNS_6mirror6ObjectENS_12MemberOffsetEsb
_ZN3art2gc10accounting11SpaceBitmapILm8EE9SweepWalkERKS3_S5_mmPFvmPPNS_6mirror6ObjectEPvESA_
_ZN3art2gc10accounting11SpaceBitmapILm8EE7SetNameERKNSt3__112basic_stringIcNS4_11char_traitsIcEENS4_9allocatorIcEEEE
_ZN3art9JavaVMExt14DumpForSigQuitERNSt3__113basic_ostreamIcNS1_11char_traitsIcEEEE
artUnlockObjectFromCode
_ZNK3com7android3art9CacheInfo25getSystemServerComponentsEv
_ZN3art5Mutex26ExclusiveUnlockUncontendedEv
_ZN3art11interpreter22DoVarHandleGetVolatileEPNS_6ThreadERNS_11ShadowFrameEPKNS_11InstructionEtPNS_6JValueE
_ZN3art29Riscv64InstructionSetFeatures9FromHwcapEv
_ZTVN3art27BuildGenericJniFrameVisitorE
_ZN3art11ClassLinker23DropFindArrayClassCacheEv
_ZTVN3art6detail20CmdlineParseArgumentINSt3__14listINS_2ti9AgentSpecENS2_9allocatorIS5_EEEEEE
_ZN3art8verifier13PrimitiveTypeC2ENS_6ObjPtrINS_6mirror5ClassEEERKNSt3__117basic_string_viewIcNS6_11char_traitsIcEEEEt
_ZN3art11interpreter17AbortTransactionVEPNS_6ThreadEPKcSt9__va_list
_ZN3art6mirror5Class19FindInterfaceMethodENSt3__117basic_string_viewIcNS2_11char_traitsIcEEEES6_NS_11PointerSizeE
_ZN3art8verifier12RegTypeCache23MakeUnresolvedReferenceEv
_ZN3art3jit12JitCodeCache30MarkCompiledCodeOnThreadStacksEPNS_6ThreadE
_ZTVN3art7BarrierE
_ZN3art18RuntimeArgumentMap28JITPoolThreadPthreadPriorityE
_ZN3art12ProfileSaver11IsFirstSaveEv
_ZN3art9JavaVMExt16UpdateWeakGlobalEPNS_6ThreadEPvNS_6ObjPtrINS_6mirror6ObjectEEE
_ZN3art16OatFileAssistant11OatFileInfo15GetDexOptNeededENS_14CompilerFilter6FilterENS0_13DexOptTriggerE
artJniUnlockObject
_ZN3art12TimingLogger5ResetEv
_ZN3art11InternTable10VisitRootsEPNS_11RootVisitorENS_14VisitRootFlagsE
_ZN3art7Runtime15GetApexVersionsENS_8ArrayRefIKNSt3__112basic_stringIcNS2_11char_traitsIcEENS2_9allocatorIcEEEEEE
_ZN3art18GcVisitedArenaPoolC2EbbPKc
_ZThn296_N3art2gc5space13FreeListSpace5AllocEPNS_6ThreadEmPmS5_S5_
_ZN3art11interpreter16UnstartedRuntime34UnstartedJNIDoubleLongBitsToDoubleEPNS_6ThreadEPNS_9ArtMethodEPNS_6mirror6ObjectEPjPNS_6JValueE
_ZN3art12ProfileSaver21RunProfileSaverThreadEPv
_ZN3art2gc4Heap46PushOnThreadLocalAllocationStackWithInternalGCEPNS_6ThreadEPNS_6ObjPtrINS_6mirror6ObjectEEE
_ZN3art27ThrowIllegalAccessExceptionEPKc
_ZN3art7Runtime22ReclaimArenaPoolMemoryEv
_ZN3art12StackVisitor13DescribeStackEPNS_6ThreadE
_ZN3art15instrumentation15Instrumentation24PushDeoptContextIfNeededEPNS_6ThreadENS_24DeoptimizationMethodTypeEbRKNS_6JValueE
_ZTVN3art3jit26JitZygoteDoneCompilingTaskE
_ZN3art6mirror8ClassExt30SetIdsArraysForClassExtExtDataENS_6ObjPtrINS0_6ObjectEEE
_ZN3art6Thread19GetUpdatedVRegFlagsEm
_ZN3art11ClassLinker14DumpForSigQuitERNSt3__113basic_ostreamIcNS1_11char_traitsIcEEEE
_ZNK3art11ElfFileImplINS_10ElfTypes64EE21GetSymbolSectionStartEj
_ZN3art2gc9collector17ConcurrentCopying17SweepLargeObjectsEb
_ZN3art6mirror14PrimitiveArrayItE16GetWithoutChecksEi
_ZNK3art2gc12Verification24IsValidHeapObjectAddressEPKvPPNS0_5space5SpaceE
_ZTVN3art12TrackedArenaE
_ZN3art17ReaderWriterMutexC1EPKcNS_9LockLevelE
_ZN3art2gc5space10ImageSpace15BootImageLayout25ValidateBootImageChecksumEPKcRKNS_11ImageHeaderEPNSt3__112basic_stringIcNS9_11char_traitsIcEENS9_9allocatorIcEEEE
_ZNK3art2gc5space19LargeObjectMapSpace8ContainsEPKNS_6mirror6ObjectE
_ZN3art25ThrowBootstrapMethodErrorEPKcz
_ZN3art2gc9allocator8RosAlloc24RevokeAllThreadLocalRunsEv
_ZN3art2gc9collector11MarkCompact11CompactPageEPNS_6mirror6ObjectEjPhb
_ZN3art7Monitor18LogContentionEventEPNS_6ThreadEjjPNS_9ArtMethodEj
_ZNK3art10OatDexFile17GetOatClassOffsetEt
_ZN3art2gc4Heap14DumpForSigQuitERNSt3__113basic_ostreamIcNS2_11char_traitsIcEEEE
_ZN3art11interpreter16UnstartedRuntime35UnstartedJdkUnsafePutObjectVolatileEPNS_6ThreadEPNS_11ShadowFrameEPNS_6JValueEm
_ZNK3art15MemMapArenaPool17GetBytesAllocatedEv
_ZN3art2gc9collector17ConcurrentCopying27RevokeThreadLocalMarkStacksEbPNS_7ClosureE
_ZTVN3art2gc9collector17ConcurrentCopying29CaptureRootsForMarkingVisitorILb0EEE
_ZN3art2gc9collector9MarkSweep15ResizeMarkStackEm
_ZN3art2gc5space11RegionSpace19UnevacFromSpaceSizeEv
_ZTVNSt3__120__shared_ptr_emplaceIPFviENS_9allocatorIS2_EEEE
_ZN3art7Runtime15VisitImageRootsEPNS_11RootVisitorE
_ZN3art6mirror10MethodType28CloneWithoutLeadingParameterEPNS_6ThreadENS_6ObjPtrIS1_EE
_ZN3art16ThreadPoolWorker3RunEv
_ZNK3art29Riscv64InstructionSetFeatures16GetFeatureStringEv
_ZN3art6mirror14PrimitiveArrayItE6MemcpyEiNS_6ObjPtrIS2_EEii
_ZN3art18ClassLoaderContextD1Ev
_ZN3art11interpreter20SendMethodExitEventsINS_6JValueEEEbPNS_6ThreadEPKNS_15instrumentation15InstrumentationERNS_11ShadowFrameEPNS_9ArtMethodERT_
_ZN3art11interpreter28DoVarHandleWeakCompareAndSetEPNS_6ThreadERNS_11ShadowFrameEPKNS_11InstructionEtPNS_6JValueE
_ZN3art27Arm64InstructionSetFeatures10FromBitmapEj
_ZN3art6mirror5Class21ProxyDescriptorEqualsEPKc
_ZN3art7metrics15MetricsReporter23UpdateSessionInBackendsEv
_ZN3art18RuntimeArgumentMap22OnlyUseTrustedOatFilesE
_ZNK3art8verifier20UnresolvedMergedType18IsObjectArrayTypesEv
artSetObjStaticFromCompiledCode
_ZN3art5Locks9cha_lock_E
_ZN3art9JNIEnvExt16SetTableOverrideEPK18JNINativeInterface
_ZN3art7Runtime30RollbackAndExitTransactionModeEv
_ZN3art8verifier12RegTypeCache24FromCat1NonSmallConstantEib
_ZTVN3art13DexFileLoaderE
_ZN3art2gc10accounting13ModUnionTable11FilterCardsEv
_ZN3art9OatHeader41SetJniDlsymLookupCriticalTrampolineOffsetEj
_ZN3art11ClassLinker10LoadMethodERKNS_7DexFileERKNS_13ClassAccessor6MethodENS_6ObjPtrINS_6mirror5ClassEEEPNS_9ArtMethodE
_ZN3art6mirror14PrimitiveArrayIiE5AllocEPNS_6ThreadEm
_ZN3art11InternTable12LookupStrongEPNS_6ThreadEjPKc
_ZN3art2gc18ReferenceProcessor5SetupEPNS_6ThreadEPNS0_9collector16GarbageCollectorEbb
_ZN3art15instrumentation15Instrumentation25DeoptimizeAllThreadFramesEv
_ZTVN3art6detail20CmdlineParseArgumentINS_19ProfileSaverOptionsEEE
_ZN3art16RuntimeCallbacks17AddMethodCallbackEPNS_14MethodCallbackE
_ZN3art5Trace11EnsureSpaceEPhPmmm
_ZN3art2gc10accounting9CardTable14ClearCardRangeEPhS3_
_ZNK3art7ElfFile10HasSectionERKNSt3__112basic_stringIcNS1_11char_traitsIcEENS1_9allocatorIcEEEE
_ZTVN3art2gc9collector17ConcurrentCopying41CaptureThreadRootsForMarkingAndCheckpointE
_ZNK3art2gc5space10ImageSpace4DumpERNSt3__113basic_ostreamIcNS3_11char_traitsIcEEEE
_ZN3art6mirror8ClassExt27SetPreRedefineClassDefIndexEt
_ZN3art7Runtime21ResetStartupCompletedEv
_ZN3art5Trace17UpdateThreadsListEPNS_6ThreadE
artAllocStringFromStringFromCodeTLAB
_ZN3art2gc5space11MallocSpace21FindRecentFreedObjectEPKNS_6mirror6ObjectE
_ZN3art6Thread7InitTidEv
artSetObjInstanceFromCompiledCode
_ZN3art6Thread7StartupEv
_ZTVN3art21RuntimeArgumentMapKeyIbEE
artAllocStringFromStringFromCodeTLABInstrumented
artAllocObjectFromCodeResolvedRegionTLAB
_ZNK3art14AotClassLinker13GetSdkCheckerEv
_ZN3art11ClassLinker24SetEnablePublicSdkChecksEb
_ZN3art2gc9collector11MarkCompact22MaybeClampGcStructuresEv
_ZN3art15instrumentation23InstrumentationListener12FieldWrittenEPNS_6ThreadENS_6HandleINS_6mirror6ObjectEEEPNS_9ArtMethodEjPNS_8ArtFieldES7_
g_art_sizeof_jit_code_entry
artThrowNullPointerExceptionFromCode
_ZN3art2gc10accounting11SpaceBitmapILm8EED1Ev
_ZN3art15instrumentation15Instrumentation28ProcessMethodUnwindCallbacksEPNS_6ThreadERNSt3__15queueIPNS_9ArtMethodENS4_5dequeIS7_NS4_9allocatorIS7_EEEEEERNS_13MutableHandleINS_6mirror9ThrowableEEE
_ZN3art3jit3Jit16InZygoteUsingJitEv
_ZN3art9JNIEnvExtC2EPNS_6ThreadEPNS_9JavaVMExtE
_ZTVN3art7Runtime29SetupLinearAllocForZygoteForkE
_ZN3art9ArtMethod18HasAnyCompiledCodeEv
_ZN3art18ClassLoaderContext5ParseERKNSt3__112basic_stringIcNS1_11char_traitsIcEENS1_9allocatorIcEEEEb
_ZN3art10ThreadList18RunEmptyCheckpointEv
_ZN3art2gc4Heap31GrowHeapOnJankPerceptibleSwitchEv
_ZN3art26GetCheckJniNativeInterfaceEv
_ZN3art16RuntimeCallbacks28RemoveRuntimeSigQuitCallbackEPNS_22RuntimeSigQuitCallbackE
_ZNK3art27Arm64InstructionSetFeatures10HasAtLeastEPKNS_22InstructionSetFeaturesE
_ZN3art2gc5space10ImageSpace18CreateFromAppImageEPKcPKNS_7OatFileEPNSt3__112basic_stringIcNS8_11char_traitsIcEENS8_9allocatorIcEEEE
_ZN3art2gc5space19LargeObjectMapSpace4FreeEPNS_6ThreadEPNS_6mirror6ObjectE
_ZN3art16WellKnownClasses21java_lang_Thread_nameE
_ZTVN3art3Dbg26DbgThreadLifecycleCallbackE
_ZNK3art6Thread13GetThreadNameEv
_ZN3art7Runtime18RecordWriteField64EPNS_6mirror6ObjectENS_12MemberOffsetEmb
_ZN3art2gc10accounting11SpaceBitmapILm4096EE5ClearEv
_ZN3art2gc9collector16GarbageCollector3RunENS0_7GcCauseEb
_ZNK3art2gc4Heap20HeapGrowthMultiplierEv
_ZN3art2gc5space13DlMallocSpace4WalkEPFvPvS3_mS3_ES3_
_ZTVN3art6detail20CmdlineParseArgumentINSt3__112basic_stringIcNS2_11char_traitsIcEENS2_9allocatorIcEEEEEE
_ZN3art6mirror19MethodHandlesLookup15FindConstructorEPNS_6ThreadENS_6HandleINS0_5ClassEEENS4_INS0_10MethodTypeEEE
_ZNK3art2gc9collector11MarkCompact13IsValidObjectEPNS_6mirror6ObjectE
_ZN3art9hiddenapi6detail15MemberSignature19LogAccessToEventLogEjNS0_12AccessMethodEb
_ZN3art6mirror22ByteArrayViewVarHandle18GetNativeByteOrderEv
_ZN3art8verifierlsERNSt3__113basic_ostreamIcNS1_11char_traitsIcEEEENS0_15HardFailLogModeE
_ZN3art10ThreadList29VisitRootsForSuspendedThreadsEPNS_11RootVisitorE
_ZN3art11ClassLinker16LinkStaticFieldsEPNS_6ThreadENS_6HandleINS_6mirror5ClassEEEPm
_ZNK3art7Runtime25GetHashTableMinLoadFactorEv
_ZNK3art11ElfFileImplINS_10ElfTypes64EE17FindSectionByTypeEj
_ZN3art3jit12JitCodeCache22ShouldDoFullCollectionEv
artGetShortStaticFromCompiledCode
_ZN3art2gc10accounting17MemoryRangeBitmapILm16EE16CreateFromMemMapEONS_6MemMapEmm
_ZN3art11Transaction20RecordWriteFieldCharEPNS_6mirror6ObjectENS_12MemberOffsetEtb
_ZN3art16WellKnownClasses33java_lang_StackOverflowError_initE
_ZN3art23OatFileAssistantContext20GetBootImageInfoListENS_14InstructionSetE
_ZN3art11Transaction21RecordWriteFieldShortEPNS_6mirror6ObjectENS_12MemberOffsetEsb
_ZN3art2gc10accounting6BitmapC2EONS_6MemMapEm
_ZN3art3jit12JitCodeCache25DisallowInlineCacheAccessEv
_ZN3art34register_dalvik_system_ZygoteHooksEP7_JNIEnv
_ZTVN3art13VariantMapKeyIdEE
_ZN3art5Trace12FieldWrittenEPNS_6ThreadENS_6HandleINS_6mirror6ObjectEEEPNS_9ArtMethodEjPNS_8ArtFieldERKNS_6JValueE
_ZN3art2gc5space11MallocSpace8MoreCoreEl
_ZN3art2gc5space10AllocSpace20SweepCallbackContextC1EbPNS1_5SpaceE
_ZN3art6HandleINS_6mirror19MethodHandlesLookupEE10GetFromGdbEv
_ZN3art6mirror6Object15SetHashCodeSeedEj
_ZN3art9ArtMethod12JniShortNameEv
_ZN3art2gc5spacelsERNSt3__113basic_ostreamIcNS2_11char_traitsIcEEEERKNS1_5SpaceE
_ZNK3art11ElfFileImplINS_10ElfTypes64EE22GetSectionHeadersStartEv
_ZN3art11interpreter16UnstartedRuntime28UnstartedSystemArraycopyCharEPNS_6ThreadEPNS_11ShadowFrameEPNS_6JValueEm
_ZN3art5Trace15ExceptionThrownEPNS_6ThreadENS_6HandleINS_6mirror9ThrowableEEE
_ZN3artlsERNSt3__113basic_ostreamIcNS0_11char_traitsIcEEEENS_8LockWord9LockStateE
_ZN3art2gc5space10ImageSpace15BootImageLayout28CompileBootclasspathElementsERKNSt3__112basic_stringIcNS4_11char_traitsIcEENS4_9allocatorIcEEEESC_mRKNS4_6vectorISA_NS8_ISA_EEEENS_8ArrayRefISB_EEPSA_
_ZN3art16WellKnownClasses70jdk_internal_math_FloatingDecimal_ExceptionalBinaryToASCIIBuffer_imageE
_ZN3art2gc13TaskProcessor7GetTaskEPNS_6ThreadE
_ZNK3art25JniIdReflectiveSourceInfoIP10_jmethodIDvE8DescribeERNSt3__113basic_ostreamIcNS4_11char_traitsIcEEEE
_ZN3art6mirror9Throwable13GetStackDepthEv
_ZTVN3art6detail20CmdlineParseArgumentINS_25MillisecondsToNanosecondsEEE
_ZN3art8verifier12VerifierDeps16AddAssignabilityERKNS_7DexFileERKNS_3dex8ClassDefERKNS0_7RegTypeESB_
_ZN3art11InternTable12InternStrongENS_6ObjPtrINS_6mirror6StringEEE
_ZN3art9JNIEnvExt10InitializeEPNSt3__112basic_stringIcNS1_11char_traitsIcEENS1_9allocatorIcEEEE
_ZN3art14OatFileManagerC1Ev
_ZN3art10ObjectLockINS_6mirror8ClassExtEEC1EPNS_6ThreadENS_6HandleIS2_EE
_ZN3art6Thread32RemoveDebuggerShadowFrameMappingEm
_ZNSt3__1lsIcNS_11char_traitsIcEENS_9allocatorIcEEEERNS_13basic_ostreamIT_T0_EES9_RKNS_12basic_stringIS6_S7_T1_EE
_ZN3art2gc9collector11MarkCompact12RegisterUffdEPvmi
_ZN3art7MonitorC1EPNS_6ThreadES2_NS_6ObjPtrINS_6mirror6ObjectEEEij
_ZNK3art12StackVisitor24GetCurrentQuickFrameInfoEv
_ZN3art7OatFileC1ERKNSt3__112basic_stringIcNS1_11char_traitsIcEENS1_9allocatorIcEEEEb
_ZN3art11annotations22GetAnnotationsForFieldEPNS_8ArtFieldE
_ZN3art11ElfFileImplINS_10ElfTypes64EE5SetupEPN9unix_file6FdFileEiibPNSt3__112basic_stringIcNS6_11char_traitsIcEENS6_9allocatorIcEEEE
_ZN3art2gc9collector17ConcurrentCopying19DumpPerformanceInfoERNSt3__113basic_ostreamIcNS3_11char_traitsIcEEEE
_ZN3art2gc5space11RegionSpace6CreateERKNSt3__112basic_stringIcNS3_11char_traitsIcEENS3_9allocatorIcEEEEONS_6MemMapEb
_ZN3art16OatFileAssistant11OatFileInfo9IsUseableEv
_ZNK3art2gc12Verification17LogHeapCorruptionENS_6ObjPtrINS_6mirror6ObjectEEENS_12MemberOffsetEPS4_b
_ZN3art18ClassLoaderContext7DefaultEv
_ZN3art3Dbg41IsForcedInterpreterNeededForExceptionImplEPNS_6ThreadE
_ZN3art22IndirectReferenceTableC2ENS_15IndirectRefKindE
_ZN3art3jit12JitCodeCache15VisitAllMethodsERKNSt3__18functionIFvPKvPNS_9ArtMethodEEEE
_ZNK3art6mirror14PrimitiveArrayIhE7GetDataEv
_ZN3art5Trace11StopTracingEbb
_ZN3art5Trace19GetIntervalInMillisEv
_ZN3art10ObjectLockINS_6mirror8ClassExtEE22WaitIgnoringInterruptsEv
_ZNK3art14ReferenceTable4SizeEv
_ZTVN3art13VariantMapKeyIiEE
_ZN3art16WellKnownClasses45dalvik_annotation_optimization_CriticalNativeE
_ZN3art2ti29AGENT_ON_UNLOAD_FUNCTION_NAMEE
_ZNK3art25ArmInstructionSetFeatures26AddFeaturesFromSplitStringERKNSt3__16vectorINS1_12basic_stringIcNS1_11char_traitsIcEENS1_9allocatorIcEEEENS6_IS8_EEEEPS8_
_ZN3art2gc10accounting11SpaceBitmapILm8EEC1ERKNSt3__112basic_stringIcNS4_11char_traitsIcEENS4_9allocatorIcEEEEONS_6MemMapEPmmPKvm
_ZN3art9hiddenapi6detail11GetDexFlagsINS_9ArtMethodEEEjPT_
_ZN3art6mirror5Class35ClearMustCountLocksFlagOnAllMethodsENS_11PointerSizeE
_ZNK3art12TimingLogger15FindTimingIndexEPKcm
_ZN3art6mirror5Class23UpdateHashForProxyClassEjNS_6ObjPtrIS1_EE
_ZN3art3jit3Jit27EnqueueOptimizedCompilationEPNS_9ArtMethodEPNS_6ThreadE
_ZN3art3jit3Jit9jit_load_E
_ZN3art10ThreadPoolC1EPKcmbm
_ZN3art2gc5space5SpaceC2ERKNSt3__112basic_stringIcNS3_11char_traitsIcEENS3_9allocatorIcEEEENS1_17GcRetentionPolicyE
_ZNK3art25X86InstructionSetFeatures8AsBitmapEv
_ZN3art7Runtime19VisitNonThreadRootsEPNS_11RootVisitorE
_ZTVN3art2gc9collector11MarkCompact17ThreadFlipVisitorE
_ZN3art6HandleINS_6mirror14PrimitiveArrayIhEEE10GetFromGdbEv
_ZN3art32register_java_lang_reflect_FieldEP7_JNIEnv
_ZN3art16ThreadPoolWorker18SetPthreadPriorityEi
_ZN3art16ScopedSuspendAllC1EPKcb
_ZN3art14OatFileManager10ContainsPcEPKv
_ZN3art9JNIEnvExt10SelfOffsetEm
_ZNK3art2gc11AllocRecord18GetClassDescriptorEPNSt3__112basic_stringIcNS2_11char_traitsIcEENS2_9allocatorIcEEEE
_ZN3art2gc9allocator8RosAlloc12ReleasePagesEv
_ZN3art2gc9collector9SemiSpace20MarkReachableObjectsEv
_ZN3art6mirror14PrimitiveArrayIlE6MemcpyEiNS_6ObjPtrIS2_EEii
_ZN3art2gc9allocator8RosAlloc19dedicated_full_run_E
_ZN3art11InternTable11AddNewTableEv
_ZN3art7Monitor12MonitorEnterEPNS_6ThreadENS_6ObjPtrINS_6mirror6ObjectEEEb
_ZNK3art6Thread9HoldsLockENS_6ObjPtrINS_6mirror6ObjectEEE
_ZN3art6HandleINS_6mirror23ByteBufferViewVarHandleEE13ObjectFromGdbEv
_ZN3art2gc9allocator8RosAllocC2EPvmmNS2_15PageReleaseModeEbm
_ZNK3art7OatFile13RequiresImageEv
_ZNK3art10OatDexFile11GetOatClassEt
_ZN3com7android3art5parseEPKc
_ZNK3art2gc12Verification20IsAddressInHeapSpaceEPKvPPNS0_5space5SpaceE
_ZN3art3jni12JniIdManager13GetGenericMapINS_9ArtMethodEEERNSt3__16vectorIPT_NS4_9allocatorIS7_EEEEv
_ZN3art33register_jdk_internal_misc_UnsafeEP7_JNIEnv
_ZN3art16OatFileAssistant25DexLocationToOdexFilenameERKNSt3__112basic_stringIcNS1_11char_traitsIcEENS1_9allocatorIcEEEENS_14InstructionSetEPS7_SB_
_ZTVN3art21RuntimeArgumentMapKeyIPFbvEEE
_ZN3art5Trace17sampling_pthread_E
_ZN3art8verifier14MethodVerifierD2Ev
_ZZN3art11ClassLinker12DexCacheDataC1EvE20s_registration_count
_ZN3art11annotations16GetLineNumFromPCEPKNS_7DexFileEPNS_9ArtMethodEj
_ZTVN3art2gc9collector9MarkSweep17VerifyRootVisitorE
_ZN3art6HandleINS_6mirror16MethodHandleImplEE10GetFromGdbEv
_ZNSt3__16vectorINS_12basic_stringIcNS_11char_traitsIcEENS_9allocatorIcEEEENS4_IS6_EEE21__push_back_slow_pathIRKS6_EEvOT_
_ZN3art6mirror14PrimitiveArrayIiE16GetWithoutChecksEi
_ZN3art7OatFileC2ERKNSt3__112basic_stringIcNS1_11char_traitsIcEENS1_9allocatorIcEEEEb
_ZNK3com7android3art9Classpath5writeERNSt3__113basic_ostreamIcNS3_11char_traitsIcEEEERKNS3_12basic_stringIcS6_NS3_9allocatorIcEEEE
_ZNSt3__124__put_character_sequenceIcNS_11char_traitsIcEEEERNS_13basic_ostreamIT_T0_EES7_PKS4_m
_ZN3art2gc10accounting17MemoryRangeBitmapILm16EE6CreateERKNSt3__112basic_stringIcNS4_11char_traitsIcEENS4_9allocatorIcEEEEmm
_ZN3art21QuickExceptionHandler49PrepareForLongJumpToInvokeStubOrInterpreterBridgeEv
_ZTVN3art21RuntimeArgumentMapKeyINS_12JdwpProviderEEE
_ZTVN3art8verifier10LongHiTypeE
_ZN3art2gc9allocator8RosAlloc12AllocFromRunEPNS_6ThreadEmPmS5_S5_
_ZN3art2gc9collector17ConcurrentCopying20ProcessMarkStackOnceEv
_ZN3art2gc5space15ContinuousSpace15HasBoundBitmapsEv
artAllocObjectFromCodeWithChecksRosAllocInstrumented
artResolveTypeAndVerifyAccessFromCode
_ZN3art6Thread24ThrowNewWrappedExceptionEPKcS2_
_ZN3art3jit15JitMemoryRegion12AllocateCodeEm
_ZNK3art8verifier7RegType16IsJavaLangObjectEv
artThrowDivZeroFromCode
_ZTVN3art11ClassLinkerE
_ZN3art10ObjectLockINS_6mirror8ClassExtEE9NotifyAllEv
_ZTVNSt3__120__shared_ptr_emplaceIN3art25MillisecondsToNanosecondsENS_9allocatorIS2_EEEE
_ZN3art26ComputeGenericJniFrameSize10WalkHeaderEPNS_32BuildNativeCallFrameStateMachineINS_26ComputeNativeCallFrameSizeEEE
_ZN3art17ReaderWriterMutex15ExclusiveUnlockEPNS_6ThreadE
_ZN3art11ImageHeader9WriteDataERKNS_14ImageFileGuardEPKhS5_NS0_11StorageModeEjbPNSt3__112basic_stringIcNS7_11char_traitsIcEENS7_9allocatorIcEEEE
_ZNK3art7OatFile8OatClass25GetOatMethodOffsetsOffsetEj
_ZN3art13SignalCatcher6OutputERKNSt3__112basic_stringIcNS1_11char_traitsIcEENS1_9allocatorIcEEEE
_ZN3art6Thread12GetCustomTLSEPKc
_ZTVN3art2gc9collector17ConcurrentCopyingE
_ZN3art22IndirectReferenceTableD2Ev
_ZN3art11InternTable5Table10VisitRootsEPNS_11RootVisitorE
_ZN3art8CodeInfoC2EPKNS_20OatQuickMethodHeaderE
_ZN3art2gc9collector17ConcurrentCopying27VerifyNoFromSpaceReferencesEv
_ZN3art6mirror20StaticFieldVarHandle11VisitTargetEPNS_22ReflectiveValueVisitorE
_ZN3art15instrumentation15Instrumentation20DisableMethodTracingEPKc
_ZTVN3art21RuntimeArgumentMapKeyINSt3__16vectorINS1_12basic_stringIcNS1_11char_traitsIcEENS1_9allocatorIcEEEENS6_IS8_EEEEEE
_ZN3art5arm6412Arm64Context15FillCalleeSavesEPhRKNS_20QuickMethodFrameInfoE
_ZN3art9JavaVMExt16AddWeakGlobalRefEPNS_6ThreadENS_6ObjPtrINS_6mirror6ObjectEEE
_ZNK3art9ExecUtils9PidfdOpenEi
_ZN3art7Runtime23RecordWriteFieldBooleanEPNS_6mirror6ObjectENS_12MemberOffsetEhb
_ZN3art2gc5space11RegionSpace37AssertAllThreadLocalBuffersAreRevokedEv
_ZN3art5Locks37reference_queue_weak_references_lock_E
_ZN3art2gc10accounting11SpaceBitmapILm4096EE5ClearEPKNS_6mirror6ObjectE
_ZNK3art2gc4Heap30FindContinuousSpaceFromAddressEPKNS_6mirror6ObjectE
artSetBooleanStaticFromCompiledCode
_ZN3art6Thread11is_started_E
_ZNK3art11ElfFileImplINS_10ElfTypes64EE13GetDynamicNumEv
_ZN3art11MonitorPool12FreeInternalEv
_ZN3art33SetQuickAllocEntryPoints_rosallocEPNS_16QuickEntryPointsEb
_ZN3art9ArtMethod11JniLongNameEv
_ZN3art5Locks16modify_ldt_lock_E
_ZNK3art11ElfFileImplINS_10ElfTypes32EE22GetDynamicSectionStartEv
_ZN3art14AotClassLinker32CanReferenceInBootImageExtensionENS_6ObjPtrINS_6mirror5ClassEEEPNS_2gc4HeapE
_ZN3art11ClassLinker17IsSameClassLoaderENS_6ObjPtrINS_6mirror8DexCacheEEEPKNS0_12DexCacheDataENS1_INS2_11ClassLoaderEEE
_ZN3art40ThrowNullPointerExceptionForMethodAccessEPNS_9ArtMethodENS_10InvokeTypeE
_ZN3art18RuntimeArgumentMap12ImageDex2OatE
_ZN3art2gc9collector9SemiSpaceC2EPNS0_4HeapERKNSt3__112basic_stringIcNS5_11char_traitsIcEENS5_9allocatorIcEEEE
_ZN3art7Monitor19AtraceMonitorUnlockEv
_ZN3art5arm6412Arm64Context16SmashCallerSavesEv
_ZN3art11ClassLinker26PrepareToDeleteClassLoaderEPNS_6ThreadERKNS0_15ClassLoaderDataEb
_ZNK3art11ElfFileImplINS_10ElfTypes64EE12GetHashChainEmPb
_ZN3art15instrumentation15Instrumentation16NeedsDexPcEventsEPNS_9ArtMethodEPNS_6ThreadE
_ZN3art11interpreter16UnstartedRuntime31UnstartedClassGetDeclaringClassEPNS_6ThreadEPNS_11ShadowFrameEPNS_6JValueEm
_ZN3art6mirror10Executable23InitializeFromArtMethodILNS_11PointerSizeE8EEEvPNS_9ArtMethodE
_ZN3art7AppInfo31GetPrimaryApkOptimizationStatusEPNSt3__112basic_stringIcNS1_11char_traitsIcEENS1_9allocatorIcEEEES8_
_ZNK3art9OatHeader7IsValidEv
_ZN3art6HandleINS_6mirror14PrimitiveArrayIaEEE10GetFromGdbEv
_ZN3art6mirror14PrimitiveArrayIhE6MemcpyEiNS_6ObjPtrIS2_EEii
_ZNK3art11ElfFileImplINS_10ElfTypes32EE22GetProgramHeadersStartEv
_ZN3art11interpreter16UnstartedRuntime28UnstartedThreadCurrentThreadEPNS_6ThreadEPNS_11ShadowFrameEPNS_6JValueEm
_ZN3art14OatFileManager25WaitForWorkersToBeCreatedEv
artAllocObjectFromCodeInitializedRosAlloc
_ZN3art2gc10accounting6Bitmap6CreateERKNSt3__112basic_stringIcNS3_11char_traitsIcEENS3_9allocatorIcEEEEm
_ZNK3art2gc10accounting11SpaceBitmapILm8EE4DumpEv
_ZN3art2gc13TaskProcessorC2Ev
_ZTVN3art6mirror6Object8AccessorIaEE
_ZN3art7Runtime19SetResolutionMethodEPNS_9ArtMethodE
_ZN3art2gc9collector9Iteration5ResetENS0_7GcCauseEb
_ZN3art16RuntimeCallbacks12StopDebuggerEv
_ZN3art2gc9collector17ConcurrentCopying16CaptureRssAtPeakEv
_ZN3art6HandleINS_6mirror23ByteBufferViewVarHandleEE10GetFromGdbEv
_ZN3art11interpreter16UnstartedRuntime12ReinitializeEv
_ZN3art18RuntimeArgumentMap16ProfileSaverOptsE
_ZN3art3jit12JitCodeCacheD2Ev
_ZN3art6mirror14PrimitiveArrayIlE3GetEi
_ZNK3art8VdexFile14VdexFileHeader18IsVdexVersionValidEv
_ZNK3art11ImageHeader18GetImageSpaceCountEv
_ZN3art6mirror6Object24CheckFieldAssignmentImplENS_12MemberOffsetENS_6ObjPtrIS1_EE
_ZN3art18BacktraceCollector7CollectEv
_ZN3art6HandleINS_6mirror11ObjectArrayINS1_5FieldEEEE13ObjectFromGdbEv
_ZNK3art9OatHeader31GetInstructionSetFeaturesBitmapEv
_ZN3art16GetTimeoutSignalEv
_ZN3art17ConditionVariable16WaitHoldingLocksEPNS_6ThreadE
_ZN3art2gc4Heap10VerifyHeapEv
_ZNK3art9OatHeader19IsConcurrentCopyingEv
_ZTVN3art6detail20CmdlineParseArgumentINSt3__16vectorINS2_12basic_stringIcNS2_11char_traitsIcEENS2_9allocatorIcEEEENS7_IS9_EEEEEE
_ZNK3art9ExecUtils19ExecAndReturnResultERKNSt3__16vectorINS1_12basic_stringIcNS1_11char_traitsIcEENS1_9allocatorIcEEEENS6_IS8_EEEEiRKNS_13ExecCallbacksEPNS_11ProcessStatEPS8_
_ZN3art11interpreter16UnstartedRuntime52UnstartedJNIUnsafeGetArrayIndexScaleForComponentTypeEPNS_6ThreadEPNS_9ArtMethodEPNS_6mirror6ObjectEPjPNS_6JValueE
_ZN3art7Monitor9NotifyAllEPNS_6ThreadE
artAllocObjectFromCodeWithChecksRosAlloc
_ZN3art11ClassLinker19ResolveMethodHandleEPNS_6ThreadEjPNS_9ArtMethodE
_ZN3art7Runtime16SweepSystemWeaksEPNS_15IsMarkedVisitorE
_ZN3art6Thread13InitCardTableEv
artAllocStringFromStringFromCodeBumpPointerInstrumented
_ZTVN3art25BaseReflectiveHandleScopeE
_ZNK3art2gc4Heap19FindSpaceFromObjectENS_6ObjPtrINS_6mirror6ObjectEEEb
_ZThn296_N3art2gc5space19LargeObjectMapSpace4FreeEPNS_6ThreadEPNS_6mirror6ObjectE
_ZTVN3art6mirror6Object8AccessorIfEE
_ZN3art5Trace13FinishTracingEv
_ZN3art2gc4Heap14MarkAllocStackEPNS0_10accounting11SpaceBitmapILm8EEES5_PNS3_ILm4096EEEPNS2_11AtomicStackINS_6mirror6ObjectEEE
artHandleFillArrayDataFromCode
_ZN3art9BaseMutex16RecordContentionEmmm
_ZN3art2gc5space16BumpPointerSpace17GetBytesAllocatedEv
_ZN3artlsERNSt3__113basic_ostreamIcNS0_11char_traitsIcEEEENS_12OatClassTypeE
_ZN3com7android3art16KeyValuePairList4readEPN8tinyxml210XMLElementE
_ZN3art16WellKnownClasses46dalvik_system_VMRuntime_nonSdkApiUsageConsumerE
_ZN3art2gc5space26ContinuousMemMapAllocSpace5SweepEb
_ZN3art15instrumentation15InstrumentationC1Ev
_ZN3art3jit15JitMemoryRegion8MoreCoreEPKvl
_ZNK3art12StackVisitor24GetVRegFromOptimizedCodeEPNS_9ArtMethodEtNS_8VRegKindEPjb
_ZN3art2ti5AgentD2Ev
_ZNK3art2gc4Heap17GetBlockingGcTimeEv
_ZN3art2gc5space11RegionSpaceC1ERKNSt3__112basic_stringIcNS3_11char_traitsIcEENS3_9allocatorIcEEEEONS_6MemMapEb
_ZTVN3art6detail20CmdlineParseArgumentINS_18BackgroundGcOptionEEE
_ZNK3art11ClassLinker26IsQuickToInterpreterBridgeEPKv
_ZN3art2gc9allocator8RosAlloc3Run6VerifyEPNS_6ThreadEPS2_b
_ZN3art2gc5space16LargeObjectSpace5SweepEb
_ZTVN3art2gc9collector9MarkSweepE
_ZNK3art11ElfFileImplINS_10ElfTypes32EE13GetHashBucketEmPb
_ZN3art2gc9allocator8RosAlloc21RevokeThreadLocalRunsEPNS_6ThreadE
_ZN3art11interpreter16UnstartedRuntime32UnstartedJNIStringFillBytesUTF16EPNS_6ThreadEPNS_9ArtMethodEPNS_6mirror6ObjectEPjPNS_6JValueE
_ZN3art6mirror14PrimitiveArrayIdE6MemcpyEiNS_6ObjPtrIS2_EEii
_ZN3art16ThreadPoolWorkerD0Ev
_ZNK3art9OatHeader18GetNterpTrampolineEv
_ZN3art25ThrowNullPointerExceptionEPKc
artThrowClassCastExceptionForObject
_ZN3art50ThrowIncompatibleClassChangeErrorForMethodConflictEPNS_9ArtMethodE
_ZN3art5MutexC2EPKcNS_9LockLevelEb
_ZN3art2gc9collector9MarkSweep27RevokeAllThreadLocalBuffersEv
_ZN3art2gc4Heap18GrowForUtilizationEPNS0_9collector16GarbageCollectorEm
_ZN3art6mirror9VarHandle26GetMethodTypeForAccessModeEPNS_6ThreadENS1_10AccessModeE
_ZNK3art10ThreadList10VisitRootsEPNS_11RootVisitorENS_14VisitRootFlagsE
_ZTVN3art13VariantMapKeyINS_14InstructionSetEEE
_ZN3artlsERNSt3__113basic_ostreamIcNS0_11char_traitsIcEEEENS_12JdwpProviderE
artAllocStringFromCharsFromCodeBumpPointer
_ZN3art16WellKnownClasses48java_lang_reflect_InvocationTargetException_initE
_ZN3artlsERNSt3__113basic_ostreamIcNS0_11char_traitsIcEEEERKNS_19DexRegisterLocationE
_ZNK3art11ElfFileImplINS_10ElfTypes64EE13GetLoadedSizeEPmPNSt3__112basic_stringIcNS4_11char_traitsIcEENS4_9allocatorIcEEEE
_ZN3art6HandleINS_6mirror8DexCacheEE13ObjectFromGdbEv
_ZN3art11interpreter16UnstartedRuntime35UnstartedJNIAtomicLongVMSupportsCS8EPNS_6ThreadEPNS_9ArtMethodEPNS_6mirror6ObjectEPjPNS_6JValueE
_ZN3art6mirror5Class25GetDeclaredMethodInternalILNS_11PointerSizeE8EEENS_6ObjPtrINS0_6MethodEEEPNS_6ThreadENS4_IS1_EENS4_INS0_6StringEEENS4_INS0_11ObjectArrayIS1_EEEERKNSt3__18functionIFNS_9hiddenapi13AccessContextEvEEE
_ZNK3art6Thread39AssertNoPendingExceptionForNewExceptionEPKc
_ZN3art6Thread10CleanupCpuEv
_ZTVN3art8verifier23UnresolvedReferenceTypeE
_ZN3art6mirror14PrimitiveArrayIiE3GetEi
_ZN3art15instrumentation15Instrumentation20InstallStubsForClassENS_6ObjPtrINS_6mirror5ClassEEE
_ZN3art9JavaVMExt24DecodeWeakGlobalAsStrongEPv
_ZTVN3art2gc9collector17ConcurrentCopying24DisableMarkingCheckpointE
_ZN3art2gc4Heap30PerformHomogeneousSpaceCompactEv
_ZN3art6HandleINS_6mirror14PrimitiveArrayIiEEE13ObjectFromGdbEv
_ZN3art9hiddenapi6detail15MemberSignatureC2EPNS_8ArtFieldE
_ZNK3art8CodeInfo28GetStackMapForNativePcOffsetEmNS_14InstructionSetE
_ZN3art6Thread14CurrentFromGdbEv
_ZN3art10ThreadList15FindThreadByTidEi
_ZNK3art8VdexFile18ComputeClassStatusEPNS_6ThreadENS_6HandleINS_6mirror5ClassEEE
_ZNK3art2gc10accounting11SpaceBitmapILm8EE13DumpMemAroundEPNS_6mirror6ObjectE
_ZN3art11InternTableC1Ev
_ZN3art11interpreter16UnstartedRuntime35UnstartedJNIUnsafeCompareAndSwapIntEPNS_6ThreadEPNS_9ArtMethodEPNS_6mirror6ObjectEPjPNS_6JValueE
_ZN3art18GcVisitedArenaPoolD2Ev
_ZNK3art2gc10accounting11SpaceBitmapILm8EE10HasAddressEPKv
_ZN3art2gc10accounting11SpaceBitmapILm4096EE11SetHeapSizeEm
_ZN3art10ThreadPool4WaitEPNS_6ThreadEbb
_ZN3art11interpreter16UnstartedRuntime31UnstartedUnsafePutOrderedObjectEPNS_6ThreadEPNS_11ShadowFrameEPNS_6JValueEm
artAllocStringObjectTLABInstrumented
_ZN3art12TrackedArena14SetFirstObjectEPhS1_
_ZN3art5Locks11trace_lock_E
_ZN3art16WellKnownClasses43org_apache_harmony_dalvik_ddmc_Chunk_offsetE
_ZN3art2gc9collector9SemiSpace17SweepLargeObjectsEb
_ZN3art6Thread21PopStackedShadowFrameEv
_ZN3art6Thread22RequestEmptyCheckpointEv
artAllocArrayFromCodeResolvedRegionTLABInstrumented
_ZN3art11ClassLinker17OpenImageDexFilesEPNS_2gc5space10ImageSpaceEPNSt3__16vectorINS5_10unique_ptrIKNS_7DexFileENS5_14default_deleteIS9_EEEENS5_9allocatorISC_EEEEPNS5_12basic_stringIcNS5_11char_traitsIcEENSD_IcEEEE
_ZNK3art11ClassLinker21CheckProxyConstructorEPNS_9ArtMethodE
_ZN3art2gc10accounting22ModUnionTableCardCacheC1ERKNSt3__112basic_stringIcNS3_11char_traitsIcEENS3_9allocatorIcEEEEPNS0_4HeapEPNS0_5space15ContinuousSpaceE
_ZN3art26register_libcore_io_MemoryEP7_JNIEnv
_ZN3art18RuntimeArgumentMap8RelocateE
_ZN3art7Runtime14DumpForSigQuitERNSt3__113basic_ostreamIcNS1_11char_traitsIcEEEE
_ZN3art12FaultManager4InitEb
_ZN3art2gc5space11RegionSpace27RevokeAllThreadLocalBuffersEv
_ZN3art6mirror14PrimitiveArrayIsE7MemmoveEiNS_6ObjPtrIS2_EEii
_ZN3art18RuntimeArgumentMap9HookAbortE
_ZNK3art8verifier7RegType19IsInstantiableTypesEv
artMethodExitHook
_ZN3art11InternTable5TableC1Ev
_ZN3art9BaseMutexD0Ev
_ZN3art20StackOverflowHandlerC1EPNS_12FaultManagerE
artAllocObjectFromCodeResolvedBumpPointer
_ZN3com7android3art21SystemServerComponentC1ENSt3__112basic_stringIcNS3_11char_traitsIcEENS3_9allocatorIcEEEEmS9_b
_ZN3art2gc9collector9MarkSweep11BindBitmapsEv
_ZN3art11interpreter16UnstartedRuntime23UnstartedThreadLocalGetEPNS_6ThreadEPNS_11ShadowFrameEPNS_6JValueEm
_ZN3art16WellKnownClasses21java_lang_Thread_lockE
_ZN3art29Riscv64InstructionSetFeatures14FromCppDefinesEv
_ZN3art9CmpgFloatEff
_ZN3art2gc5space13FreeListSpace6CreateERKNSt3__112basic_stringIcNS3_11char_traitsIcEENS3_9allocatorIcEEEEm
_ZN3art7Runtime10ResetStatsEi
_ZN3art18RuntimeArgumentMap19BootClassPathOatFdsE
_ZN3art2gc10accounting11SpaceBitmapILm4096EE16AtomicTestAndSetEPKNS_6mirror6ObjectE
_ZN3art2gc9collector9MarkSweep20MarkReachableObjectsEv
_ZN3art10ThreadList23SuspendThreadByThreadIdEjNS_13SuspendReasonEPb
_ZN3art2gc4Heap24InitPerfettoJavaHeapProfEv
_ZN3art6HandleINS_6mirror5ProxyEE13ObjectFromGdbEv
_ZN3art6HandleINS_6mirror11ObjectArrayINS1_5FieldEEEE10GetFromGdbEv
_ZN3art11interpreter16UnstartedRuntime21UnstartedStringCharAtEPNS_6ThreadEPNS_11ShadowFrameEPNS_6JValueEm
_ZN3art2gc9allocator8RosAlloc6VerifyEv
_ZN3art2gc10accounting17MemoryRangeBitmapILm8EE5ClearEm
_ZN3art11interpreter16UnstartedRuntime19UnstartedJNIMathExpEPNS_6ThreadEPNS_9ArtMethodEPNS_6mirror6ObjectEPjPNS_6JValueE
_ZN3artlsERNSt3__113basic_ostreamIcNS0_11char_traitsIcEEEERKNS_22InstructionSetFeaturesE
_ZN3art3jni12JniIdManager9GetNextIdINS_9ArtMethodEEEmNS_9JniIdTypeE
_ZN3art7Runtime12BlockSignalsEv
_ZNK3com7android4apex8ApexInfo13getModulePathEv
_ZNK3art11ClassLinker15VisitAllocatorsEPNS_16AllocatorVisitorE
_ZN3art2gc9collector17ConcurrentCopying17ProcessReferencesEPNS_6ThreadE
_ZN3art2gc5space11RegionSpace16ClampGrowthLimitEm
_ZNK3art6Thread9ShortDumpERNSt3__113basic_ostreamIcNS1_11char_traitsIcEEEE
_ZN3com7android4apex5writeERNSt3__113basic_ostreamIcNS2_11char_traitsIcEEEERKNS1_12ApexInfoListE
_ZN3art20StartupCompletedTask22DeleteStartupDexCachesEPNS_6ThreadEb
_ZThn16_N3art2gc9collector9MarkSweep17MarkHeapReferenceEPNS_6mirror13HeapReferenceINS3_6ObjectEEEb
_ZN3art6mirror8ClassExt18SetOriginalDexFileENS_6ObjPtrINS0_6ObjectEEE
_ZN3art8CodeInfoC2EPKhPm
_ZN3art19StringBuilderAppend7AppendFEjPKjPNS_6ThreadE
_ZN3art2gc9collector11MarkCompact14UnregisterUffdEPhm
_ZN3art18RuntimeArgumentMap23JITPriorityThreadWeightE
_ZN3art18RuntimeArgumentMap23AutoPromoteOpaqueJniIdsE
_ZNK3art7Runtime20IsTransactionAbortedEv
_ZN3art2gc5space16BumpPointerSpaceC1ERKNSt3__112basic_stringIcNS3_11char_traitsIcEENS3_9allocatorIcEEEEONS_6MemMapE
_ZThn136_N3art2gc5space13RosAllocSpace4FreeEPNS_6ThreadEPNS_6mirror6ObjectE
_ZN3art16WellKnownClasses37java_lang_ClassNotFoundException_initE
_ZN3art10OatDexFileC1EONS_15TypeLookupTableE
_ZN3art7metrics15MetricsReporter10GetMetricsEv
_ZN3art8verifier13UndefinedType14CreateInstanceENS_6ObjPtrINS_6mirror5ClassEEERKNSt3__117basic_string_viewIcNS6_11char_traitsIcEEEEt
_ZN3art8verifier12RegTypeCache4FromENS_6ObjPtrINS_6mirror11ClassLoaderEEEPKcb
artAllocObjectFromCodeResolvedRosAlloc
artGet32InstanceFromCode
_ZN3art6mirror14PrimitiveArrayIfE3GetEi
_ZN3art10ThreadList8ContainsEPNS_6ThreadE
_ZN3art7Runtime13PreZygoteForkEv
_ZN3art18RuntimeArgumentMap11JdwpOptionsE
_ZN3art11interpreter33DoVarHandleWeakCompareAndSetPlainEPNS_6ThreadERNS_11ShadowFrameEPKNS_11InstructionEtPNS_6JValueE
artAllocObjectFromCodeInitializedRegionTLAB
_ZN3art6Thread7SetTlabEPhS1_S1_
NterpGetStaticField
_ZNK3art7OatFile21GetClassLoaderContextEv
_ZN3art5Mutex15ExclusiveUnlockEPNS_6ThreadE
_ZNK3art11ClassLinker29GetRuntimeQuickGenericJniStubEv
_ZN3art2gc4Heap18PostGcVerificationEPNS0_9collector16GarbageCollectorE
_ZN3art7metrics15MetricsReporter19BackgroundThreadRunEv
_ZTVN3art18GcVisitedArenaPoolE
_ZN3art11ClassLinker20DecodeDexCacheLockedEPNS_6ThreadEPKNS0_12DexCacheDataE
_ZNK3art33ScopedObjectAccessAlreadyRunnable9ForceCopyEv
_ZN3art3jni19LocalReferenceTable10InitializeEmPNSt3__112basic_stringIcNS2_11char_traitsIcEENS2_9allocatorIcEEEE
_ZN3art6mirror5Class22EnsureInstanceFieldIdsENS_6HandleIS1_EE
_ZN3art18RuntimeArgumentMap9SlowDebugE
_ZNK3com7android3art9CacheInfo22getFirstModuleInfoListEv
_ZN3art16WellKnownClasses41dalvik_system_InMemoryDexClassLoader_initE
_ZN3art2gc4Heap8FinishGCEPNS_6ThreadENS0_9collector6GcTypeE
_ZN3art5hprof8DumpHeapEPKcib
_ZN3art11interpreter27DoVarHandleGetAndBitwiseXorEPNS_6ThreadERNS_11ShadowFrameEPKNS_11InstructionEtPNS_6JValueE
_ZN3art11interpreter16UnstartedRuntime27UnstartedSystemArraycopyIntEPNS_6ThreadEPNS_11ShadowFrameEPNS_6JValueEm
_ZZN3art3JNIILb0EE12NewStringUTFEP7_JNIEnvPKcE19prev_bad_input_time
_ZTVN3art21RuntimeArgumentMapKeyINS_6MemoryILm1024EEEEE
_ZN3art8verifier12RegisterLine18CheckUnaryOpToWideEPNS0_14MethodVerifierEPKNS_11InstructionERKNS0_7RegTypeES9_S9_
artAllocStringFromBytesFromCodeBumpPointerInstrumented
_ZN3art8ArtField11PrettyFieldEPS0_b
_ZN3art2gc9collector17ConcurrentCopying11BindBitmapsEv
_ZN3art2gc9collector12ImmuneSpaces8AddSpaceEPNS0_5space15ContinuousSpaceE
_ZN3art25ArmInstructionSetFeatures11FromVariantERKNSt3__112basic_stringIcNS1_11char_traitsIcEENS1_9allocatorIcEEEEPS7_
_ZN3art11ClassLinker11VerifyClassEPNS_6ThreadEPNS_8verifier12VerifierDepsENS_6HandleINS_6mirror5ClassEEENS3_15HardFailLogModeE
_ZNK3art11ElfFileImplINS_10ElfTypes64EE10GetDynamicEj
_ZN3art11interpreter16UnstartedRuntime27UnstartedJNIStringCompareToEPNS_6ThreadEPNS_9ArtMethodEPNS_6mirror6ObjectEPjPNS_6JValueE
_ZN3art5Locks25runtime_thread_pool_lock_E
_ZN3art2gc9collector9SemiSpaceC1EPNS0_4HeapERKNSt3__112basic_stringIcNS5_11char_traitsIcEENS5_9allocatorIcEEEE
_ZN3art6HandleINS_6mirror22ByteArrayViewVarHandleEE13ObjectFromGdbEv
_ZTVN3art5hprof20VectorEndianOuputputE
_ZN3art13ParsedOptions5ParseERKNSt3__16vectorINS1_4pairINS1_12basic_stringIcNS1_11char_traitsIcEENS1_9allocatorIcEEEEPKvEENS7_ISC_EEEEbPNS_18RuntimeArgumentMapE
_ZNK3art17ReaderWriterMutex4DumpERNSt3__113basic_ostreamIcNS1_11char_traitsIcEEEE
_ZN3artlsERNSt3__113basic_ostreamIcNS0_11char_traitsIcEEEENS_11TracingModeE
mspace_realloc_in_place
_ZN3art16WellKnownClasses53java_lang_invoke_MethodHandles_Lookup_findConstructorE
_ZN3art2gc20AllocRecordObjectMap16SetMaxStackDepthEm
_ZNK3art11ClassLinker21IsQuickGenericJniStubEPKv
_ZNSt3__16__treeINS_12__value_typeINS_12basic_stringIcNS_11char_traitsIcEENS_9allocatorIcEEEES7_EENS_19__map_value_compareIS7_S8_NS_4lessIS7_EELb1EEENS5_IS8_EEE7destroyEPNS_11__tree_nodeIS8_PvEE
_ZN3art2gc9collector11MarkCompact13PreCleanCardsEv
artInvokeInterfaceTrampolineWithAccessCheck
_ZN3art20StackOverflowHandler6ActionEiP7siginfoPv
_ZN3art7AppInfo22FromVMRuntimeConstantsEj
_ZN3art5Trace13GetBufferSizeEv
_ZN3art5arm64lsERNSt3__113basic_ostreamIcNS1_11char_traitsIcEEEERKNS0_9WRegisterE
artAllocObjectFromCodeWithChecksBumpPointerInstrumented
artAllocArrayFromCodeResolvedBumpPointer
_ZN3art11annotations29MethodIsReachabilitySensitiveERKNS_7DexFileERKNS_3dex8ClassDefEj
_ZN3art10ObjectLockINS_6mirror6ObjectEE22WaitIgnoringInterruptsEv
_ZN3art11ClassLinkerC2EPNS_11InternTableEb
_ZN3art2gc9collector9MarkSweep15ScanGrayObjectsEbh
_ZN3art2gc4HeapC1EmmmmddmmmRKNSt3__16vectorINS2_12basic_stringIcNS2_11char_traitsIcEENS2_9allocatorIcEEEENS7_IS9_EEEESD_RKNS3_IiNS7_IiEEEESH_SH_SH_SD_NS_14InstructionSetENS0_13CollectorTypeESJ_NS0_5space20LargeObjectSpaceTypeEmmmbmmbbbbbbbbbbbbbmbb
_ZN3art6HandleINS_6mirror11ObjectArrayINS1_6MethodEEEE13ObjectFromGdbEv
_ZN3art32register_java_lang_reflect_ArrayEP7_JNIEnv
_ZN3art22EntrypointCanTriggerGCENS_19QuickEntrypointEnumE
_ZN3artlsERNSt3__113basic_ostreamIcNS0_11char_traitsIcEEEENS_11ImageHeader20BootImageLiveObjectsE
_ZN3art12TrackedArenaC2EPhmbb
_ZN3art17ReaderWriterMutexD0Ev
_ZNK3art11ImageHeader10IsAppImageEv
_ZN3art2gc10accounting13RememberedSet4DumpERNSt3__113basic_ostreamIcNS3_11char_traitsIcEEEE
_ZN3art2gc10accounting11SpaceBitmapILm4096EE12SetHeapLimitEm
_ZN3art2gc5space11ZygoteSpaceC1ERKNSt3__112basic_stringIcNS3_11char_traitsIcEENS3_9allocatorIcEEEEONS_6MemMapEm
_ZN3art3jit12JitCodeCache18RemoveUnmarkedCodeEPNS_6ThreadE
_ZN3art11MonitorListD2Ev
_ZN3art25PreInitializeNativeBridgeERKNSt3__112basic_stringIcNS0_11char_traitsIcEENS0_9allocatorIcEEEE
_ZN3art16RuntimeCallbacks26AddThreadLifecycleCallbackEPNS_23ThreadLifecycleCallbackE
_ZN3art2gc23ScopedGCCriticalSectionD2Ev
_ZN3art9JavaVMExt24WaitForWeakGlobalsAccessEPNS_6ThreadE
_ZN3art16RuntimeCallbacks18ThreadParkFinishedEb
_ZN3art20CheckReferenceResultENS_6HandleINS_6mirror6ObjectEEEPNS_6ThreadE
_ZN3art11ClassLinker30InsertClassTableForClassLoaderENS_6ObjPtrINS_6mirror11ClassLoaderEEE
_ZN3art11ClassLinker16LinkFieldsHelper42FieldTypeOrderFromFirstDescriptorCharacterEc
_ZN3art6mirror8DexCache14SetClassLoaderENS_6ObjPtrINS0_11ClassLoaderEEE
_ZN3art5Trace5AbortEv
_ZNSt3__16vectorImNS_9allocatorImEEE21__push_back_slow_pathIRKmEEvOT_
_ZN3art6mirror5Field18CreateFromArtFieldEPNS_6ThreadEPNS_8ArtFieldEb
_ZN3art2gc4Heap31JHPCheckNonTlabSampleAllocationEPNS_6ThreadEPNS_6mirror6ObjectEm
_ZN3art16WellKnownClasses61jdk_internal_math_FloatingDecimal_getBinaryToASCIIConverter_DE
_ZN3art7Monitor11MonitorExitEPNS_6ThreadENS_6ObjPtrINS_6mirror6ObjectEEE
_ZN3art6Thread18CreateNativeThreadEP7_JNIEnvP8_jobjectmb
_ZN3art2gc4Heap27CreateMallocSpaceFromMemMapEONS_6MemMapEmmmPKcb
CpuFeatures_StringView_KeepFront
_ZN3art11ClassLinker24AddMethodToConflictTableENS_6ObjPtrINS_6mirror5ClassEEEPNS_9ArtMethodES6_S6_
_ZN3art2gc9collector11MarkCompact12MarkingPhaseEv
_ZTVN3art2gc9collector11MarkCompactE
_ZN3art6mirror14PrimitiveArrayIdE3SetEid
_ZN3art24register_java_lang_ClassEP7_JNIEnv
_ZN3art18RuntimeArgumentMap15HeapGrowthLimitE
_ZN3art7Runtime16DeleteThreadPoolEv
_ZNK3art8verifier11BooleanType4DumpEv
_ZN3art2gc9allocator8RosAlloc14FootprintLimitEv
_ZN3art2gc5space11RegionSpace30RevokeThreadLocalBuffersLockedEPNS_6ThreadEb
_ZN3art7Runtime17AcquireThreadPoolEv
_ZN3art2gc14ReferenceQueue16EnqueueReferenceENS_6ObjPtrINS_6mirror9ReferenceEEE
_ZTVN3art2gc5space16LargeObjectSpaceE
_ZN3art7Runtime19DeoptimizeBootImageEv
_ZN3art13ParsedOptions12UsageMessageEP7__sFILEPKcz
_ZZN3art11CmdlineTypeINS_9ParseListIiLc58EEEE12DescribeTypeEvE3str
_ZN3art7RuntimeD2Ev
_ZNK3com7android3art14ModuleInfoList13getModuleInfoEv
_ZNK3art8verifier10LongLoType4DumpEv
_ZN3art8verifier8ByteType14CreateInstanceENS_6ObjPtrINS_6mirror5ClassEEERKNSt3__117basic_string_viewIcNS6_11char_traitsIcEEEEt
_ZN3art11annotations23GetSourceDebugExtensionENS_6HandleINS_6mirror5ClassEEE
_ZN3art6mirror6String11ToCharArrayENS_6HandleIS1_EEPNS_6ThreadE
_ZN3art3jit12JitCodeCache15FreeCodeAndDataEPKv
_ZTVNSt3__120__shared_ptr_emplaceIN3art9JniIdTypeENS_9allocatorIS2_EEEE
_ZN3art8CodeInfo17DecodeGcMasksOnlyEPKNS_20OatQuickMethodHeaderE
_ZN3art16WellKnownClasses23java_lang_Float_valueOfE
_ZNK3art25ArmInstructionSetFeatures8AsBitmapEv
artAllocArrayFromCodeResolvedRegionTLAB
_ZNK3com7android3art12KeyValuePair4hasKEv
_ZN3art5Locks13mutator_lock_E
_ZN3art5Locks40reference_queue_cleared_references_lock_E
_ZN3art11interpreter36DoVarHandleCompareAndExchangeReleaseEPNS_6ThreadERNS_11ShadowFrameEPKNS_11InstructionEtPNS_6JValueE
_ZN3art6mirror5Class27FindTypeIndexInOtherDexFileERKNS_7DexFileE
_ZN3art11Transaction10VisitRootsEPNS_11RootVisitorE
_ZN3com7android3art9ClasspathC1ENSt3__16vectorINS1_9ComponentENS3_9allocatorIS5_EEEE
_ZN3art2gc4Heap21AddFinalizerReferenceEPNS_6ThreadEPNS_6ObjPtrINS_6mirror6ObjectEEE
_ZNK3art11ElfFileImplINS_10ElfTypes64EE9GetStringER10elf64_shdrj
_ZTVN3art15instrumentation23InstrumentationListenerE
_ZN3art7OatFileD1Ev
_ZN3art15instrumentation15Instrumentation17UpdateMethodsCodeEPNS_9ArtMethodEPKv
_ZN3art2gc10accounting11SpaceBitmapILm4096EE10ClearRangeEPKNS_6mirror6ObjectES7_
_ZN3art2gc14ReferenceQueue21ForwardSoftReferencesEPNS_17MarkObjectVisitorE
_ZNSt3__16vectorIhNS_9allocatorIhEEE6insertIPKhEENS_9enable_ifIXaasr21__is_forward_iteratorIT_EE5valuesr16is_constructibleIhNS_15iterator_traitsIS8_E9referenceEEE5valueENS_11__wrap_iterIPhEEE4typeENSC_IS6_EES8_S8_
_ZN3art7OatFile12OpenFromVdexEiONSt3__110unique_ptrINS_8VdexFileENS1_14default_deleteIS3_EEEERKNS1_12basic_stringIcNS1_11char_traitsIcEENS1_9allocatorIcEEEEPNS_18ClassLoaderContextEPSD_
_ZN3art8verifier9FloatType7DestroyEv
artSet8StaticFromCompiledCode
_ZN3art5MutexD2Ev
_ZThn136_N3art2gc5space16BumpPointerSpace28LogFragmentationAllocFailureERNSt3__113basic_ostreamIcNS3_11char_traitsIcEEEEm
_ZN3art15instrumentation15Instrumentation22ShouldDeoptimizeCallerEPNS_6ThreadEPPNS_9ArtMethodE
_ZN3art7Monitor8IsLockedEv
_ZNK3art12StackVisitor15GetReturnPcAddrEv
_ZNK3art12StackVisitor6GetGPREj
_ZN3art16WellKnownClasses31java_lang_OutOfMemoryError_initE
_ZN3art8verifier12RegTypeCache17FromUninitializedERKNS0_7RegTypeE
_ZNK3art2gc5space10ImageSpace12DumpSectionsERNSt3__113basic_ostreamIcNS3_11char_traitsIcEEEE
_ZN3art11ClassLinker28AttemptSupertypeVerificationEPNS_6ThreadEPNS_8verifier12VerifierDepsENS_6HandleINS_6mirror5ClassEEES9_
_ZN3art11ClassLinker10SetupClassERKNS_7DexFileERKNS_3dex8ClassDefENS_6HandleINS_6mirror5ClassEEENS_6ObjPtrINS9_11ClassLoaderEEE
_ZN3art14ReferenceTable4DumpERNSt3__113basic_ostreamIcNS1_11char_traitsIcEEEERNS1_6vectorINS_6GcRootINS_6mirror6ObjectEEENS1_9allocatorISB_EEEE
_ZN3art8verifier12VerifierDeps25HasRecordedVerifiedStatusERKNS_7DexFileERKNS_3dex8ClassDefE
_ZN3art16WellKnownClasses28java_lang_ClassLoader_parentE
_ZN3art2gc4Heap18IncrementFreedEverEv
_ZNK3art2ti5Agent10FindSymbolERKNSt3__112basic_stringIcNS2_11char_traitsIcEENS2_9allocatorIcEEEE
_ZN3art11ClassLinker9LinkClassEPNS_6ThreadEPKcNS_6HandleINS_6mirror5ClassEEENS5_INS6_11ObjectArrayIS7_EEEEPNS_13MutableHandleIS7_EE
_ZN3art21ThrowNoSuchFieldErrorENSt3__117basic_string_viewIcNS0_11char_traitsIcEEEENS_6ObjPtrINS_6mirror5ClassEEES4_S4_
_ZN3art2gc5space16BumpPointerSpaceC2ERKNSt3__112basic_stringIcNS3_11char_traitsIcEENS3_9allocatorIcEEEEPhSC_
_ZTVN3art25JniIdReflectiveSourceInfoIP10_jmethodIDvEE
_ZTVN3art6detail20CmdlineParseArgumentINS_9hiddenapi17EnforcementPolicyEEE
_ZTVN3art21RuntimeArgumentMapKeyINSt3__14listINS_2ti9AgentSpecENS1_9allocatorIS4_EEEEEE
_ZTVN3art8verifier12ConflictTypeE
_ZN3art11annotations24IsClassAnnotationPresentENS_6HandleINS_6mirror5ClassEEES4_
_ZThn16_N3art2gc9collector11MarkCompact10MarkObjectEPNS_6mirror6ObjectE
_ZN3art2gc4Heap8AddSpaceEPNS0_5space5SpaceE
_ZThn296_N3art2gc5space13FreeListSpace4FreeEPNS_6ThreadEPNS_6mirror6ObjectE
_ZN3art7Monitor8DoNotifyEPNS_6ThreadENS_6ObjPtrINS_6mirror6ObjectEEEb
_ZN3art6mirror5Class15FindStaticFieldENSt3__117basic_string_viewIcNS2_11char_traitsIcEEEES6_
_ZN3art2gc4Heap23NotifyNativeAllocationsEP7_JNIEnv
_ZN3art2gc4Heap24RegisterNativeAllocationEP7_JNIEnvm
_ZN3art11interpreter16UnexpectedOpcodeEPKNS_11InstructionERKNS_11ShadowFrameE
_ZN3art6mirror5Class19FindInterfaceMethodENSt3__117basic_string_viewIcNS2_11char_traitsIcEEEERKNS_9SignatureENS_11PointerSizeE
_ZN3art12StackVisitor16SetVRegReferenceEPNS_9ArtMethodEtNS_6ObjPtrINS_6mirror6ObjectEEE
_ZN3art16WellKnownClasses41dalvik_annotation_optimization_FastNativeE
artInitializeStaticStorageFromCode
_ZN3artlsERNSt3__113basic_ostreamIcNS0_11char_traitsIcEEEENS_14ThreadPriorityE
_ZN3art6HandleINS_6mirror6MethodEE10GetFromGdbEv
_ZN3art2gc9collector17ConcurrentCopying23VerifyGrayImmuneObjectsEv
_ZN3art6mirror9VarHandle25GetAccessModeByMethodNameEPKcPNS1_10AccessModeE
_ZN3art13SignalCatcherD1Ev
_ZN3art19GenericJniMethodEndEPNS_6ThreadEj6jvaluemPNS_9ArtMethodE
_ZN3art9ArtMethod21GetOatMethodQuickCodeENS_11PointerSizeE
_ZN3art11interpreter28GetNterpWithClinitEntryPointEv
_ZNK3art11annotations38RuntimeEncodedStaticFieldValueIterator16ReadValueToFieldILb0EEEvPNS_8ArtFieldE
_ZTVN3art2gc10accounting27ModUnionTableReferenceCacheE
_ZNK3art24HeapReflectiveSourceInfo8DescribeERNSt3__113basic_ostreamIcNS1_11char_traitsIcEEEE
_ZTVN3art21RuntimeArgumentMapKeyIPFviEEE
_ZN3art6mirror9Throwable7IsErrorEv
_ZN3art11InternTable18LookupStrongLockedENS_6ObjPtrINS_6mirror6StringEEE
_ZN3art6HandleINS_6mirror11ObjectArrayINS1_6StringEEEE10GetFromGdbEv
_ZTVN11unwindstack15AndroidUnwinderE
_ZN3art26ResetQuickAllocEntryPointsEPNS_16QuickEntryPointsE
_ZN3art16WellKnownClasses30java_lang_Throwable_stackTraceE
_ZN3art2gc9allocator19ArtDlMallocMoreCoreEPvl
_ZN3art2gc9collector9MarkSweep26VerifySuspendedThreadRootsERNSt3__113basic_ostreamIcNS3_11char_traitsIcEEEE
_ZNK3art2gc4Heap34IsNonDiscontinuousSpaceHeapAddressEPKv
_ZN3art10ThreadPool18SetPthreadPriorityEi
_ZN3art7OatFile8OatClassC2EPKS0_NS_11ClassStatusENS_12OatClassTypeEjPKjPKNS_16OatMethodOffsetsE
_ZN3art5Mutex14IsDumpFrequentEPNS_6ThreadEm
_ZN3art2gc5space16BumpPointerSpace13GetBlockSizesEPNS_6ThreadEPm
_ZN3art15instrumentation15Instrumentation21InstallStubsForMethodEPNS_9ArtMethodE
_ZN3art6mirror5Array16CreateMultiArrayEPNS_6ThreadENS_6HandleINS0_5ClassEEENS4_INS0_14PrimitiveArrayIiEEEE
_ZTVN3art13VariantMapKeyINS_18BackgroundGcOptionEEE
_ZN3art11interpreter18CanRuntimeUseNterpEv
_ZN3art9JNIEnvExtD2Ev
_ZNK3art8verifier18PreciseConstLoType4DumpEv
_ZN3art7Runtime33SetupLinearAllocForPostZygoteForkEPNS_6ThreadE
_ZN3art2gc5space11RegionSpace24RevokeThreadLocalBuffersEPNS_6ThreadE
_ZN3art6HandleINS_6mirror8ClassExtEE13ObjectFromGdbEv
_ZN3art11HeapSampler21NextGeoDistRandSampleEv
_ZN3art18RuntimeArgumentMap16JniOptsForceCopyE
_ZN3art18RuntimeArgumentMap8AgentLibE
_ZN3art10ThreadList15ReleaseThreadIdEPNS_6ThreadEj
_ZN3art2gc5space16BumpPointerSpace37AssertAllThreadLocalBuffersAreRevokedEv
_ZTVN3art2gc5space13FreeListSpaceE
_ZN3art3jit16ScopedJitSuspendD2Ev
_ZN3art11Transaction23RecordResolveMethodTypeENS_6ObjPtrINS_6mirror8DexCacheEEENS_3dex10ProtoIndexE
_ZNK3art22InstructionSetFeatures31AsRiscv64InstructionSetFeaturesEv
_ZNK3com7android3art14ModuleInfoList18getFirstModuleInfoEv
_ZN3art2gc9allocator8RosAlloc11FreeFromRunEPNS_6ThreadEPvPNS2_3RunE
_ZN3art6HandleINS_6mirror11ObjectArrayINS1_5ClassEEEE13ObjectFromGdbEv
_ZN3art11InternTable12RemoveStrongENS_6ObjPtrINS_6mirror6StringEEEj
_ZNK3art6Thread32IsExceptionThrownByCurrentMethodENS_6ObjPtrINS_6mirror9ThrowableEEE
_ZN3art3jit12JitCodeCache16GetProfilingInfoEPNS_9ArtMethodEPNS_6ThreadE
_ZN3art44ThrowIllegalAccessErrorForImplementingMethodENS_6ObjPtrINS_6mirror5ClassEEEPNS_9ArtMethodES5_
_ZN3art5hprof5Hprof14DumpHeapObjectEPNS_6mirror6ObjectE
_ZN3art12FindFieldJNIERKNS_18ScopedObjectAccessEP7_jclassPKcS6_b
_ZN3art11Transaction34UndoResolveMethodTypeModificationsEv
_ZN3art2gc10accounting10HeapBitmap23RemoveLargeObjectBitmapEPNS1_11SpaceBitmapILm4096EEE
_ZN3art11MonitorList16SweepMonitorListEPNS_15IsMarkedVisitorE
_ZN3art12TimingLoggerC1EPKcbbNS0_10TimingKindE
_ZN3art18RuntimeArgumentMap20CompilerCallbacksPtrE
artQuickResolutionTrampoline
_ZN3art3jni19LocalReferenceTable11AssertEmptyEv
_ZNK3art8VdexFile23MatchesDexFileChecksumsERKNSt3__16vectorIPKNS_7DexFile6HeaderENS1_9allocatorIS6_EEEE
_ZNK3com7android3art9CacheInfo20hasCompilationOsModeEv
_ZN3art2gc9collector17ConcurrentCopying10SwapStacksEv
_ZNK3art7Runtime21GetCompilerExecutableEv
_ZN3art18RuntimeArgumentMap18IgnoreMaxFootprintE
_ZN3art16WellKnownClasses25java_lang_Throwable_causeE
_ZN3art2gc9collector17ConcurrentCopying22PushOntoLocalMarkStackEPNS_6mirror6ObjectE
_ZN3art6HandleINS_6mirror11ClassLoaderEE10GetFromGdbEv
_ZN3art6HandleINS_6mirror14PrimitiveArrayIdEEE13ObjectFromGdbEv
_ZN3art11interpreter22CheckNterpAsmConstantsEv
_ZN3art3jni12JniIdManager10VisitRootsEPNS_11RootVisitorE
_ZN3art22UnboxPrimitiveForFieldENS_6ObjPtrINS_6mirror6ObjectEEENS0_INS1_5ClassEEEPNS_8ArtFieldEPNS_6JValueE
_ZN3art18GcVisitedArenaPool19AllocSingleObjArenaEm
_ZN3art6mirror18EmulatedStackFrame14GetReturnValueEPNS_6ThreadEPNS_6JValueE
_ZNK3art2gc10accounting11SpaceBitmapILm8EE5BeginEv
_ZN3art2gc5spacelsERNSt3__113basic_ostreamIcNS2_11char_traitsIcEEEENS1_9SpaceTypeE
_ZN3art16OatFileAssistantC2EPKcNS_14InstructionSetEPNS_18ClassLoaderContextEbbPNS_23OatFileAssistantContextE
_ZN3art7Runtime17ReleaseThreadPoolEv
_ZNK3com7android4apex8ApexInfo11getIsActiveEv
_ZN3art8verifier12VerifierDeps29MaybeRecordVerificationStatusEPS1_RKNS_7DexFileERKNS_3dex8ClassDefENS0_11FailureKindE
_ZN3art2gc4Heap24IncrementDisableMovingGCEPNS_6ThreadE
_ZN3art2gc9allocator8RosAlloc28LogFragmentationAllocFailureERNSt3__113basic_ostreamIcNS3_11char_traitsIcEEEEm
_ZN3art2gc10accounting11SpaceBitmapILm8EE8CopyFromEPS3_
_ZNK3art22IndirectReferenceTable4DumpERNSt3__113basic_ostreamIcNS1_11char_traitsIcEEEE
_ZN3art12ProfileSaver38FetchAndCacheResolvedClassesAndMethodsEb
_ZN3art10ElfOatFile11ElfFileOpenEPN9unix_file6FdFileEbbbPNS_6MemMapEPNSt3__112basic_stringIcNS6_11char_traitsIcEENS6_9allocatorIcEEEE
_ZNK3art8verifier17UninitializedType20IsUninitializedTypesEv
_ZN3art2ti9AgentSpecC1ERKNSt3__112basic_stringIcNS2_11char_traitsIcEENS2_9allocatorIcEEEE
_ZN3art2gc10accounting10HeapBitmap20AddLargeObjectBitmapEPNS1_11SpaceBitmapILm4096EEE
_ZN3art8verifier9FloatType14CreateInstanceENS_6ObjPtrINS_6mirror5ClassEEERKNSt3__117basic_string_viewIcNS6_11char_traitsIcEEEEt
_ZN3art16WellKnownClasses36java_lang_Daemons_waitForDaemonStartE
_ZN3art2gc5space16LargeObjectSpace13SweepCallbackEmPPNS_6mirror6ObjectEPv
_ZN3art6HandleINS_6mirror9VarHandleEE10GetFromGdbEv
_ZN3art6PluginC2ERKS0_
_ZNK3art8verifier12RegisterLine4DumpEPNS0_14MethodVerifierE
_ZN3art10CmplDoubleEdd
_ZN3art2gc5spacelsERNSt3__113basic_ostreamIcNS2_11char_traitsIcEEEENS1_17GcRetentionPolicyE
__emutls_v._ZZN3art11HeapSampler19GetBytesUntilSampleEvE18bytes_until_sample
_ZTVN3art2gc9collector17ConcurrentCopying28VerifyNoFromSpaceRefsVisitorE
_ZN3art10ClassTable16ClearStrongRootsEv
_ZN3art2gc5space10ImageSpace13bitmap_index_E
_ZN3art13ProfilingInfoC2EPNS_9ArtMethodERKNSt3__16vectorIjNS3_9allocatorIjEEEE
_ZNK3art2gc10accounting17MemoryRangeBitmapILm16EE10HasAddressEm
_ZN3art18GcVisitedArenaPool15FreeRangeLockedEPhm
_ZN3art6mirror11Constructor19CreateFromArtMethodILNS_11PointerSizeE8EEENS_6ObjPtrIS1_EEPNS_6ThreadEPNS_9ArtMethodE
_ZN3art2gc9collector11MarkCompact25RecursiveMarkDirtyObjectsEbh
_ZN3art27RemoveNativeDebugInfoForJitEPKv
_ZN3art12ProfileSaver26GetExtraMethodHotnessFlagsERKNS_19ProfileSaverOptionsE
_ZN3art11ElfFileImplINS_10ElfTypes32EEC1EPN9unix_file6FdFileEbb
_ZN3art11interpreter14DoVarHandleSetEPNS_6ThreadERNS_11ShadowFrameEPKNS_11InstructionEtPNS_6JValueE
_ZN3art3jit12JitCodeCache22AddMethodBeingCompiledEPNS_9ArtMethodENS_15CompilationKindE
_ZNK3art11ImageHeader7IsValidEv
_ZN3art6mirror5Class37ClearSkipAccessChecksFlagOnAllMethodsENS_11PointerSizeE